(lp1
(dp2
S'url'
p3
S'https://scontent.cdninstagram.com/vp/87c04d0814eb22217015f5d4757c5aeb/5C0D0AF2/t51.2885-15/sh0.08/e35/s640x640/37254209_2119495828322471_6795489576329674752_n.jpg?_nc_eui2=AeGwhmWbrK2upocXw-fitQ_XtU8urjdHJuMnzfaBnVJtH1BjmaHwo-8MG0W6gYuTM0xjfzRLQYNhSdmC_aJbxIbv'
p4
sS'location'
p5
S'Austin'
p6
sS'description'
p7
(lp8
S'adventure'
p9
aS'music'
p10
aS'food'
p11
asa(dp12
S'url'
p13
(lp14
S'https://farm1.staticflickr.com/894/40687683560_b945f77b52_b.jpg'
p15
aS'https://farm2.staticflickr.com/1741/42156113944_f73b3f8edf_b.jpg'
p16
aS'https://farm2.staticflickr.com/1781/42159689264_e828943338_b.jpg'
p17
asS'location'
p18
S'salt lake city, utah'
p19
sS'description'
p20
(lp21
Vsummer
p22
aVoffice
p23
aVcute
p24
asa(dp25
g13
(lp26
S'https://farm1.staticflickr.com/836/42618851734_23227013c4_b.jpg'
p27
aS'https://farm1.staticflickr.com/979/42332606021_dd09119a2a_b.jpg'
p28
aS'https://farm5.staticflickr.com/4712/25980574568_50e0977e25_b.jpg'
p29
asg18
S'new york'
p30
sg20
(lp31
Vsummer
p32
aVoffice
p33
aVcute
p34
asa(dp35
g3
S'https://scontent.cdninstagram.com/vp/9fb93cba53ad14819ff20b4044434721/5BF21B8A/t51.2885-15/sh0.08/e35/s640x640/36160470_1036318143194877_7432221918230478848_n.jpg?_nc_eui2=AeFuns6crQY85jwZFDPKqZai8z76-sZPK60lxUaYIpb-XENHpCHB2knRX6uxb7GnN-skGIm_o-ZcMT5tL-IQG4-I'
p36
sg5
S'Germany'
p37
sg7
(lp38
S'hills'
p39
ag10
aS'culture'
p40
asa(dp41
g13
(lp42
S'https://farm1.staticflickr.com/870/40710335115_3b7a704b85_b.jpg'
p43
aS'https://farm2.staticflickr.com/1744/42588246061_2ac774251f_b.jpg'
p44
aS'https://farm1.staticflickr.com/788/40503343935_f25b72ddbf_b.jpg'
p45
asg18
S'anchorage, alaska'
p46
sg20
(lp47
Vsummer
p48
aVoffice
p49
aVcute
p50
asa.