(dp1
S'travel'
p2
(dp3
Vstatus
p4
(dp5
Vcode
p6
I10000
sVdescription
p7
VOk
p8
ssVoutputs
p9
(lp10
(dp11
Vstatus
p12
(dp13
Vcode
p14
I10000
sVdescription
p15
VOk
p16
ssVcreated_at
p17
V2018-07-27T03:38:50.490901843Z
p18
sVinput
p19
(dp20
Vdata
p21
(dp22
Vimage
p23
(dp24
Vurl
p25
Vhttps://farm1.staticflickr.com/877/40568716285_eaafc72f49_b.jpg
p26
sssVid
p27
Vf5176c978e4945f8a48b16d141dbaba8
p28
ssVmodel
p29
(dp30
Vdisplay_name
p31
VTravel
p32
sVname
p33
Vtravel-v1.0
p34
sVoutput_info
p35
(dp36
Vtype_ext
p37
Vconcept
p38
sVmessage
p39
VShow output_info with: GET /models/{model_id}/output_info
p40
sVtype
p41
Vconcept
p42
ssVcreated_at
p43
V2016-09-17T22:18:59.955626Z
p44
sVapp_id
p45
Vmain
p46
sVmodel_version
p47
(dp48
Vstatus
p49
(dp50
Vcode
p51
I21100
sVdescription
p52
VModel trained successfully
p53
ssVcreated_at
p54
V2016-09-17T22:18:59.955626Z
p55
sVid
p56
Vd2ffbf9730fd41fea79063270847be82
p57
ssVid
p58
Veee28c313d69466f836ab83287a54ed9
p59
ssVdata
p60
(dp61
Vconcepts
p62
(lp63
(dp64
Vapp_id
p65
Vmain
p66
sVid
p67
Vai_2QTpTbBt
p68
sVvalue
p69
F0.83545374999999999
sVname
p70
VPeople
p71
sa(dp72
Vapp_id
p73
Vmain
p74
sVid
p75
Vai_hmSzCZd5
p76
sVvalue
p77
F0.71962550000000003
sVname
p78
VDaytime
p79
sa(dp80
Vapp_id
p81
Vmain
p82
sVid
p83
Vai_zF1MvGHt
p84
sVvalue
p85
F0.69373269999999998
sVname
p86
VTelevision
p87
sa(dp88
Vapp_id
p89
Vmain
p90
sVid
p91
Vai_4NvhWszJ
p92
sVvalue
p93
F0.66941700000000004
sVname
p94
VSnow & Ski Sports
p95
sa(dp96
Vapp_id
p97
Vmain
p98
sVid
p99
Vai_NVNKLrCW
p100
sVvalue
p101
F0.42612266999999998
sVname
p102
VDetails
p103
sa(dp104
Vapp_id
p105
Vmain
p106
sVid
p107
Vai_6bSB4lrf
p108
sVvalue
p109
F0.34740156
sVname
p110
VCouch
p111
sa(dp112
Vapp_id
p113
Vmain
p114
sVid
p115
Vai_J2x9qKdS
p116
sVvalue
p117
F0.34485257000000002
sVname
p118
VAnimals
p119
sa(dp120
Vapp_id
p121
Vmain
p122
sVid
p123
Vai_PtsQBLC8
p124
sVvalue
p125
F0.32772633000000001
sVname
p126
VFireplace
p127
sa(dp128
Vapp_id
p129
Vmain
p130
sVid
p131
Vai_4jNtvp5v
p132
sVvalue
p133
F0.27834483999999998
sVname
p134
VAutumn
p135
sa(dp136
Vapp_id
p137
Vmain
p138
sVid
p139
Vai_q4dFqXVs
p140
sVvalue
p141
F0.26293924000000002
sVname
p142
VBoat
p143
sa(dp144
Vapp_id
p145
Vmain
p146
sVid
p147
Vai_CVQVtMzc
p148
sVvalue
p149
F0.25895032000000001
sVname
p150
VNighttime
p151
sa(dp152
Vapp_id
p153
Vmain
p154
sVid
p155
Vai_XB2b9m4v
p156
sVvalue
p157
F0.25643705999999999
sVname
p158
VSummer
p159
sa(dp160
Vapp_id
p161
Vmain
p162
sVid
p163
Vai_7kVDV8Md
p164
sVvalue
p165
F0.23445959999999999
sVname
p166
VBicycling
p167
sa(dp168
Vapp_id
p169
Vmain
p170
sVid
p171
Vai_TCZdTr6B
p172
sVvalue
p173
F0.17361558999999999
sVname
p174
VYoga
p175
sa(dp176
Vapp_id
p177
Vmain
p178
sVid
p179
Vai_Chn8gtkj
p180
sVvalue
p181
F0.14075536
sVname
p182
VWardrobe
p183
sa(dp184
Vapp_id
p185
Vmain
p186
sVid
p187
Vai_v5zlpKkc
p188
sVvalue
p189
F0.13925763999999999
sVname
p190
VTennis Court
p191
sa(dp192
Vapp_id
p193
Vmain
p194
sVid
p195
Vai_3j6nNvsH
p196
sVvalue
p197
F0.13779453999999999
sVname
p198
VCasino
p199
sa(dp200
Vapp_id
p201
Vmain
p202
sVid
p203
Vai_T4GN2Cdl
p204
sVvalue
p205
F0.13500032000000001
sVname
p206
VWater Sports
p207
sa(dp208
Vapp_id
p209
Vmain
p210
sVid
p211
Vai_b8Mtxj85
p212
sVvalue
p213
F0.12569751000000001
sVname
p214
VTelephone
p215
sa(dp216
Vapp_id
p217
Vmain
p218
sVid
p219
Vai_sf6B79BS
p220
sVvalue
p221
F0.10547683400000001
sVname
p222
VSports & Activities
p223
sassVid
p224
V66a9d2d8cc354d1aadde045c63e9f8d4
p225
sassS'general'
p226
(dp227
Vstatus
p228
(dp229
Vcode
p230
I10000
sVdescription
p231
VOk
p232
ssVoutputs
p233
(lp234
(dp235
Vstatus
p236
(dp237
Vcode
p238
I10000
sVdescription
p239
VOk
p240
ssVcreated_at
p241
V2018-07-27T03:38:50.115871492Z
p242
sVinput
p243
(dp244
Vdata
p245
(dp246
Vimage
p247
(dp248
Vurl
p249
Vhttps://farm1.staticflickr.com/877/40568716285_eaafc72f49_b.jpg
p250
sssVid
p251
V5f8086967acf4620b53bac7b6b481d93
p252
ssVmodel
p253
(dp254
Vdisplay_name
p255
VGeneral
p256
sVname
p257
Vgeneral-v1.3
p258
sVoutput_info
p259
(dp260
Vtype_ext
p261
Vconcept
p262
sVmessage
p263
VShow output_info with: GET /models/{model_id}/output_info
p264
sVtype
p265
Vconcept
p266
ssVcreated_at
p267
V2016-03-09T17:11:39.608845Z
p268
sVapp_id
p269
Vmain
p270
sVmodel_version
p271
(dp272
Vstatus
p273
(dp274
Vcode
p275
I21100
sVdescription
p276
VModel trained successfully
p277
ssVcreated_at
p278
V2016-07-13T01:19:12.147644Z
p279
sVid
p280
Vaa9ca48295b37401f8af92ad1af0d91d
p281
ssVid
p282
Vaaa03c23b3724a16a56b629203edc62c
p283
ssVdata
p284
(dp285
Vconcepts
p286
(lp287
(dp288
Vapp_id
p289
Vmain
p290
sVid
p291
Vai_l8TKp2h5
p292
sVvalue
p293
F0.98853400000000002
sVname
p294
Vpeople
p295
sa(dp296
Vapp_id
p297
Vmain
p298
sVid
p299
Vai_TJ9wFfK5
p300
sVvalue
p301
F0.98529303000000001
sVname
p302
Vportrait
p303
sa(dp304
Vapp_id
p305
Vmain
p306
sVid
p307
Vai_86sS08Pw
p308
sVvalue
p309
F0.97213700000000003
sVname
p310
Vwear
p311
sa(dp312
Vapp_id
p313
Vmain
p314
sVid
p315
Vai_VPmHr5bm
p316
sVvalue
p317
F0.97115660000000004
sVname
p318
Vadult
p319
sa(dp320
Vapp_id
p321
Vmain
p322
sVid
p323
Vai_RQccV41p
p324
sVvalue
p325
F0.9701959
sVname
p326
Vwoman
p327
sa(dp328
Vapp_id
p329
Vmain
p330
sVid
p331
Vai_SVshtN54
p332
sVvalue
p333
F0.96691159999999998
sVname
p334
Vone
p335
sa(dp336
Vapp_id
p337
Vmain
p338
sVid
p339
Vai_dxSG2s86
p340
sVvalue
p341
F0.95273255999999995
sVname
p342
Vman
p343
sa(dp344
Vapp_id
p345
Vmain
p346
sVid
p347
Vai_GxSDhQ34
p348
sVvalue
p349
F0.94393647000000003
sVname
p350
Vfacial expression
p351
sa(dp352
Vapp_id
p353
Vmain
p354
sVid
p355
Vai_vMZvx6j4
p356
sVvalue
p357
F0.92495380000000005
sVname
p358
Vmonochrome
p359
sa(dp360
Vapp_id
p361
Vmain
p362
sVid
p363
Vai_Pf2b7clG
p364
sVvalue
p365
F0.89307046000000001
sVname
p366
Vindoors
p367
sa(dp368
Vapp_id
p369
Vmain
p370
sVid
p371
Vai_dngMN46t
p372
sVvalue
p373
F0.89134102999999998
sVname
p374
Vfashion
p375
sa(dp376
Vapp_id
p377
Vmain
p378
sVid
p379
Vai_dPSZc2sM
p380
sVvalue
p381
F0.87298240000000005
sVname
p382
Vlid
p383
sa(dp384
Vapp_id
p385
Vmain
p386
sVid
p387
Vai_k76BrtPJ
p388
sVvalue
p389
F0.86776774999999995
sVname
p390
Vmusic
p391
sa(dp392
Vapp_id
p393
Vmain
p394
sVid
p395
Vai_lPcW4tSX
p396
sVvalue
p397
F0.83991515999999999
sVname
p398
Vadolescent
p399
sa(dp400
Vapp_id
p401
Vmain
p402
sVid
p403
Vai_L83krFdq
p404
sVvalue
p405
F0.83271194000000004
sVname
p406
Vveil
p407
sa(dp408
Vapp_id
p409
Vmain
p410
sVid
p411
Vai_L271qKLm
p412
sVvalue
p413
F0.82144784999999998
sVname
p414
Vcap
p415
sa(dp416
Vapp_id
p417
Vmain
p418
sVid
p419
Vai_qX2mzVVX
p420
sVvalue
p421
F0.79759729999999995
sVname
p422
Vouterwear
p423
sa(dp424
Vapp_id
p425
Vmain
p426
sVid
p427
Vai_32STZ9b3
p428
sVvalue
p429
F0.79424393000000004
sVname
p430
Vsinger
p431
sa(dp432
Vapp_id
p433
Vmain
p434
sVid
p435
Vai_4sJLn6nX
p436
sVvalue
p437
F0.78661320000000001
sVname
p438
Vdark
p439
sa(dp440
Vapp_id
p441
Vmain
p442
sVid
p443
Vai_n9vjC1jB
p444
sVvalue
p445
F0.76248073999999999
sVname
p446
Vlight
p447
sassVid
p448
Ve76f9b2f9f8f4781a8e8a3152bd9818a
p449
sass.