(dp1
S'travel'
p2
(dp3
Vstatus
p4
(dp5
Vcode
p6
I10000
sVdescription
p7
VOk
p8
ssVoutputs
p9
(lp10
(dp11
Vstatus
p12
(dp13
Vcode
p14
I10000
sVdescription
p15
VOk
p16
ssVcreated_at
p17
V2018-07-27T03:46:39.491211991Z
p18
sVinput
p19
(dp20
Vdata
p21
(dp22
Vimage
p23
(dp24
Vurl
p25
Vhttps://farm1.staticflickr.com/951/27806905818_1795fd7aa0_b.jpg
p26
sssVid
p27
V6036a45185c744ebab379f70332a5295
p28
ssVmodel
p29
(dp30
Vdisplay_name
p31
VTravel
p32
sVname
p33
Vtravel-v1.0
p34
sVoutput_info
p35
(dp36
Vtype_ext
p37
Vconcept
p38
sVmessage
p39
VShow output_info with: GET /models/{model_id}/output_info
p40
sVtype
p41
Vconcept
p42
ssVcreated_at
p43
V2016-09-17T22:18:59.955626Z
p44
sVapp_id
p45
Vmain
p46
sVmodel_version
p47
(dp48
Vstatus
p49
(dp50
Vcode
p51
I21100
sVdescription
p52
VModel trained successfully
p53
ssVcreated_at
p54
V2016-09-17T22:18:59.955626Z
p55
sVid
p56
Vd2ffbf9730fd41fea79063270847be82
p57
ssVid
p58
Veee28c313d69466f836ab83287a54ed9
p59
ssVdata
p60
(dp61
Vconcepts
p62
(lp63
(dp64
Vapp_id
p65
Vmain
p66
sVid
p67
Vai_NVNKLrCW
p68
sVvalue
p69
F0.50111910000000004
sVname
p70
VDetails
p71
sa(dp72
Vapp_id
p73
Vmain
p74
sVid
p75
Vai_21rnC1M0
p76
sVvalue
p77
F0.44247815000000001
sVname
p78
VLamp
p79
sa(dp80
Vapp_id
p81
Vmain
p82
sVid
p83
Vai_10wRz2HT
p84
sVvalue
p85
F0.24750015
sVname
p86
VInternet Area
p87
sa(dp88
Vapp_id
p89
Vmain
p90
sVid
p91
Vai_zXzHH5WQ
p92
sVvalue
p93
F0.19575264000000001
sVname
p94
VStairs
p95
sa(dp96
Vapp_id
p97
Vmain
p98
sVid
p99
Vai_hmSzCZd5
p100
sVvalue
p101
F0.13888294000000001
sVname
p102
VDaytime
p103
sa(dp104
Vapp_id
p105
Vmain
p106
sVid
p107
Vai_7kVDV8Md
p108
sVvalue
p109
F0.12493282999999999
sVname
p110
VBicycling
p111
sa(dp112
Vapp_id
p113
Vmain
p114
sVid
p115
Vai_CVQVtMzc
p116
sVvalue
p117
F0.12027612
sVname
p118
VNighttime
p119
sa(dp120
Vapp_id
p121
Vmain
p122
sVid
p123
Vai_rRbfXwwx
p124
sVvalue
p125
F0.12022916
sVname
p126
VChair
p127
sa(dp128
Vapp_id
p129
Vmain
p130
sVid
p131
Vai_KpHGGkfp
p132
sVvalue
p133
F0.11102736000000001
sVname
p134
VFountain
p135
sa(dp136
Vapp_id
p137
Vmain
p138
sVid
p139
Vai_2wpW3QZB
p140
sVvalue
p141
F0.1104745
sVname
p142
VBathroom Bathtub
p143
sa(dp144
Vapp_id
p145
Vmain
p146
sVid
p147
Vai_VrkkZ5HT
p148
sVvalue
p149
F0.10034899
sVname
p150
VLogo
p151
sa(dp152
Vapp_id
p153
Vmain
p154
sVid
p155
Vai_zF1MvGHt
p156
sVvalue
p157
F0.099195099999999994
sVname
p158
VTelevision
p159
sa(dp160
Vapp_id
p161
Vmain
p162
sVid
p163
Vai_3j6nNvsH
p164
sVvalue
p165
F0.095735243999999997
sVname
p166
VCasino
p167
sa(dp168
Vapp_id
p169
Vmain
p170
sVid
p171
Vai_CtFL0TP6
p172
sVvalue
p173
F0.088950119999999994
sVname
p174
VWellness & Spa
p175
sa(dp176
Vapp_id
p177
Vmain
p178
sVid
p179
Vai_1lSRr75N
p180
sVvalue
p181
F0.087313539999999995
sVname
p182
VIn-Room Kitchenette
p183
sa(dp184
Vapp_id
p185
Vmain
p186
sVid
p187
Vai_sf6B79BS
p188
sVvalue
p189
F0.078894220000000001
sVname
p190
VSports & Activities
p191
sa(dp192
Vapp_id
p193
Vmain
p194
sVid
p195
Vai_K7dZBpd9
p196
sVvalue
p197
F0.077571124000000005
sVname
p198
VLounge
p199
sa(dp200
Vapp_id
p201
Vmain
p202
sVid
p203
Vai_C2l5BqC3
p204
sVvalue
p205
F0.072799730000000007
sVname
p206
VSauna
p207
sa(dp208
Vapp_id
p209
Vmain
p210
sVid
p211
Vai_cnHscbDs
p212
sVvalue
p213
F0.068803980000000001
sVname
p214
VReception
p215
sa(dp216
Vapp_id
p217
Vmain
p218
sVid
p219
Vai_v5zlpKkc
p220
sVvalue
p221
F0.068245689999999998
sVname
p222
VTennis Court
p223
sassVid
p224
V885ea17db4964eee9bee78cfd3b32de8
p225
sassS'general'
p226
(dp227
Vstatus
p228
(dp229
Vcode
p230
I10000
sVdescription
p231
VOk
p232
ssVoutputs
p233
(lp234
(dp235
Vstatus
p236
(dp237
Vcode
p238
I10000
sVdescription
p239
VOk
p240
ssVcreated_at
p241
V2018-07-27T03:46:38.692003199Z
p242
sVinput
p243
(dp244
Vdata
p245
(dp246
Vimage
p247
(dp248
Vurl
p249
Vhttps://farm1.staticflickr.com/951/27806905818_1795fd7aa0_b.jpg
p250
sssVid
p251
V87c060e55fca437bad10f3a6e53d3bac
p252
ssVmodel
p253
(dp254
Vdisplay_name
p255
VGeneral
p256
sVname
p257
Vgeneral-v1.3
p258
sVoutput_info
p259
(dp260
Vtype_ext
p261
Vconcept
p262
sVmessage
p263
VShow output_info with: GET /models/{model_id}/output_info
p264
sVtype
p265
Vconcept
p266
ssVcreated_at
p267
V2016-03-09T17:11:39.608845Z
p268
sVapp_id
p269
Vmain
p270
sVmodel_version
p271
(dp272
Vstatus
p273
(dp274
Vcode
p275
I21100
sVdescription
p276
VModel trained successfully
p277
ssVcreated_at
p278
V2016-07-13T01:19:12.147644Z
p279
sVid
p280
Vaa9ca48295b37401f8af92ad1af0d91d
p281
ssVid
p282
Vaaa03c23b3724a16a56b629203edc62c
p283
ssVdata
p284
(dp285
Vconcepts
p286
(lp287
(dp288
Vapp_id
p289
Vmain
p290
sVid
p291
Vai_XdwTxJz3
p292
sVvalue
p293
F0.98700120000000002
sVname
p294
Vsteel
p295
sa(dp296
Vapp_id
p297
Vmain
p298
sVid
p299
Vai_sTjX6dqC
p300
sVvalue
p301
F0.97936559999999995
sVname
p302
Vabstract
p303
sa(dp304
Vapp_id
p305
Vmain
p306
sVid
p307
Vai_V0WFhmCF
p308
sVvalue
p309
F0.97686552999999998
sVname
p310
Vpattern
p311
sa(dp312
Vapp_id
p313
Vmain
p314
sVid
p315
Vai_m52MdMR3
p316
sVvalue
p317
F0.97061646000000001
sVname
p318
Viron
p319
sa(dp320
Vapp_id
p321
Vmain
p322
sVid
p323
Vai_r2WJXzXd
p324
sVvalue
p325
F0.96747159999999999
sVname
p326
Vnet
p327
sa(dp328
Vapp_id
p329
Vmain
p330
sVid
p331
Vai_DtR1vs3M
p332
sVvalue
p333
F0.96555579999999996
sVname
p334
Vmetallic
p335
sa(dp336
Vapp_id
p337
Vmain
p338
sVid
p339
Vai_fh9frthJ
p340
sVvalue
p341
F0.96301793999999996
sVname
p342
Vcurve
p343
sa(dp344
Vapp_id
p345
Vmain
p346
sVid
p347
Vai_QBpcNtdR
p348
sVvalue
p349
F0.96192619999999995
sVname
p350
Vgraphic
p351
sa(dp352
Vapp_id
p353
Vmain
p354
sVid
p355
Vai_Lq00FggW
p356
sVvalue
p357
F0.96178936999999998
sVname
p358
Vdesktop
p359
sa(dp360
Vapp_id
p361
Vmain
p362
sVid
p363
Vai_lslcnbCj
p364
sVvalue
p365
F0.95992049999999995
sVname
p366
Vfuturistic
p367
sa(dp368
Vapp_id
p369
Vmain
p370
sVid
p371
Vai_JBPqff8z
p372
sVvalue
p373
F0.95636679999999996
sVname
p374
Vart
p375
sa(dp376
Vapp_id
p377
Vmain
p378
sVid
p379
Vai_nwVxMzG8
p380
sVvalue
p381
F0.9540111
sVname
p382
Vround
p383
sa(dp384
Vapp_id
p385
Vmain
p386
sVid
p387
Vai_xDkxFm5H
p388
sVvalue
p389
F0.94224419999999998
sVname
p390
Vvortex
p391
sa(dp392
Vapp_id
p393
Vmain
p394
sVid
p395
Vai_cMfj16kJ
p396
sVvalue
p397
F0.9339942
sVname
p398
Vdesign
p399
sa(dp400
Vapp_id
p401
Vmain
p402
sVid
p403
Vai_5CdtNs0W
p404
sVvalue
p405
F0.92313860000000003
sVname
p406
Vgeometry
p407
sa(dp408
Vapp_id
p409
Vmain
p410
sVid
p411
Vai_jmQRhNDh
p412
sVvalue
p413
F0.92118100000000003
sVname
p414
Vchrome
p415
sa(dp416
Vapp_id
p417
Vmain
p418
sVid
p419
Vai_kWjhhXHb
p420
sVvalue
p421
F0.91479706999999999
sVname
p422
Valloy
p423
sa(dp424
Vapp_id
p425
Vmain
p426
sVid
p427
Vai_jC8bvS9g
p428
sVvalue
p429
F0.9073272
sVname
p430
Vdeflect
p431
sa(dp432
Vapp_id
p433
Vmain
p434
sVid
p435
Vai_HP6qMkcb
p436
sVvalue
p437
F0.90081495
sVname
p438
Vcreativity
p439
sa(dp440
Vapp_id
p441
Vmain
p442
sVid
p443
Vai_RMfvwS0c
p444
sVvalue
p445
F0.90064716
sVname
p446
Vround out
p447
sassVid
p448
V98057bfa6da94bb68e6d7c4007b7e2ce
p449
sass.