(dp1
S'travel'
p2
(dp3
Vstatus
p4
(dp5
Vcode
p6
I10000
sVdescription
p7
VOk
p8
ssVoutputs
p9
(lp10
(dp11
Vstatus
p12
(dp13
Vcode
p14
I10000
sVdescription
p15
VOk
p16
ssVcreated_at
p17
V2018-07-27T03:45:52.388166346Z
p18
sVinput
p19
(dp20
Vdata
p21
(dp22
Vimage
p23
(dp24
Vurl
p25
Vhttps://farm1.staticflickr.com/911/41468931034_a83a860ba1_b.jpg
p26
sssVid
p27
Vfac216f3bff34dfd809134bde515d2ac
p28
ssVmodel
p29
(dp30
Vdisplay_name
p31
VTravel
p32
sVname
p33
Vtravel-v1.0
p34
sVoutput_info
p35
(dp36
Vtype_ext
p37
Vconcept
p38
sVmessage
p39
VShow output_info with: GET /models/{model_id}/output_info
p40
sVtype
p41
Vconcept
p42
ssVcreated_at
p43
V2016-09-17T22:18:59.955626Z
p44
sVapp_id
p45
Vmain
p46
sVmodel_version
p47
(dp48
Vstatus
p49
(dp50
Vcode
p51
I21100
sVdescription
p52
VModel trained successfully
p53
ssVcreated_at
p54
V2016-09-17T22:18:59.955626Z
p55
sVid
p56
Vd2ffbf9730fd41fea79063270847be82
p57
ssVid
p58
Veee28c313d69466f836ab83287a54ed9
p59
ssVdata
p60
(dp61
Vconcepts
p62
(lp63
(dp64
Vapp_id
p65
Vmain
p66
sVid
p67
Vai_zdZZcgX8
p68
sVvalue
p69
F0.90669909999999998
sVname
p70
VSurroundings
p71
sa(dp72
Vapp_id
p73
Vmain
p74
sVid
p75
Vai_8lSXGvks
p76
sVvalue
p77
F0.87872404000000004
sVname
p78
VView
p79
sa(dp80
Vapp_id
p81
Vmain
p82
sVid
p83
Vai_dXWGf1bz
p84
sVvalue
p85
F0.76888259999999997
sVname
p86
VBuilding
p87
sa(dp88
Vapp_id
p89
Vmain
p90
sVid
p91
Vai_hmSzCZd5
p92
sVvalue
p93
F0.65106900000000001
sVname
p94
VDaytime
p95
sa(dp96
Vapp_id
p97
Vmain
p98
sVid
p99
Vai_CVQVtMzc
p100
sVvalue
p101
F0.44554892000000001
sVname
p102
VNighttime
p103
sa(dp104
Vapp_id
p105
Vmain
p106
sVid
p107
Vai_3j6nNvsH
p108
sVvalue
p109
F0.33323267000000001
sVname
p110
VCasino
p111
sa(dp112
Vapp_id
p113
Vmain
p114
sVid
p115
Vai_qDnbBFvp
p116
sVvalue
p117
F0.24513076
sVname
p118
VBalcony
p119
sa(dp120
Vapp_id
p121
Vmain
p122
sVid
p123
Vai_XB2b9m4v
p124
sVvalue
p125
F0.16845603000000001
sVname
p126
VSummer
p127
sa(dp128
Vapp_id
p129
Vmain
p130
sVid
p131
Vai_2QTpTbBt
p132
sVvalue
p133
F0.16748405
sVname
p134
VPeople
p135
sa(dp136
Vapp_id
p137
Vmain
p138
sVid
p139
Vai_q4dFqXVs
p140
sVvalue
p141
F0.14248965999999999
sVname
p142
VBoat
p143
sa(dp144
Vapp_id
p145
Vmain
p146
sVid
p147
Vai_VvRQQ216
p148
sVvalue
p149
F0.13327791999999999
sVname
p150
VBeach
p151
sa(dp152
Vapp_id
p153
Vmain
p154
sVid
p155
Vai_NVNKLrCW
p156
sVvalue
p157
F0.11230519
sVname
p158
VDetails
p159
sa(dp160
Vapp_id
p161
Vmain
p162
sVid
p163
Vai_zF1MvGHt
p164
sVvalue
p165
F0.092441239999999994
sVname
p166
VTelevision
p167
sa(dp168
Vapp_id
p169
Vmain
p170
sVid
p171
Vai_PwpRfsD8
p172
sVvalue
p173
F0.078495510000000004
sVname
p174
VCoffee Machine
p175
sa(dp176
Vapp_id
p177
Vmain
p178
sVid
p179
Vai_MbpTFJxj
p180
sVvalue
p181
F0.074130080000000001
sVname
p182
VGarden
p183
sa(dp184
Vapp_id
p185
Vmain
p186
sVid
p187
Vai_1lSRr75N
p188
sVvalue
p189
F0.062832059999999995
sVname
p190
VIn-Room Kitchenette
p191
sa(dp192
Vapp_id
p193
Vmain
p194
sVid
p195
Vai_lt2nKTB2
p196
sVvalue
p197
F0.055990594999999997
sVname
p198
VTerrace
p199
sa(dp200
Vapp_id
p201
Vmain
p202
sVid
p203
Vai_sf6B79BS
p204
sVvalue
p205
F0.051411079999999998
sVname
p206
VSports & Activities
p207
sa(dp208
Vapp_id
p209
Vmain
p210
sVid
p211
Vai_KpHGGkfp
p212
sVvalue
p213
F0.035355520000000001
sVname
p214
VFountain
p215
sa(dp216
Vapp_id
p217
Vmain
p218
sVid
p219
Vai_4jNtvp5v
p220
sVvalue
p221
F0.033992269999999998
sVname
p222
VAutumn
p223
sassVid
p224
V8b7dee6a0b1047d3b8b224cc029382b4
p225
sassS'general'
p226
(dp227
Vstatus
p228
(dp229
Vcode
p230
I10000
sVdescription
p231
VOk
p232
ssVoutputs
p233
(lp234
(dp235
Vstatus
p236
(dp237
Vcode
p238
I10000
sVdescription
p239
VOk
p240
ssVcreated_at
p241
V2018-07-27T03:45:51.631444645Z
p242
sVinput
p243
(dp244
Vdata
p245
(dp246
Vimage
p247
(dp248
Vurl
p249
Vhttps://farm1.staticflickr.com/911/41468931034_a83a860ba1_b.jpg
p250
sssVid
p251
V3d8b4f6511684983ba036389a075f75e
p252
ssVmodel
p253
(dp254
Vdisplay_name
p255
VGeneral
p256
sVname
p257
Vgeneral-v1.3
p258
sVoutput_info
p259
(dp260
Vtype_ext
p261
Vconcept
p262
sVmessage
p263
VShow output_info with: GET /models/{model_id}/output_info
p264
sVtype
p265
Vconcept
p266
ssVcreated_at
p267
V2016-03-09T17:11:39.608845Z
p268
sVapp_id
p269
Vmain
p270
sVmodel_version
p271
(dp272
Vstatus
p273
(dp274
Vcode
p275
I21100
sVdescription
p276
VModel trained successfully
p277
ssVcreated_at
p278
V2016-07-13T01:19:12.147644Z
p279
sVid
p280
Vaa9ca48295b37401f8af92ad1af0d91d
p281
ssVid
p282
Vaaa03c23b3724a16a56b629203edc62c
p283
ssVdata
p284
(dp285
Vconcepts
p286
(lp287
(dp288
Vapp_id
p289
Vmain
p290
sVid
p291
Vai_WBQfVV0p
p292
sVvalue
p293
F0.99665329999999996
sVname
p294
Vcity
p295
sa(dp296
Vapp_id
p297
Vmain
p298
sVid
p299
Vai_FWCjC8jZ
p300
sVvalue
p301
F0.99516510000000002
sVname
p302
Varchitecture
p303
sa(dp304
Vapp_id
p305
Vmain
p306
sVid
p307
Vai_068RtVqV
p308
sVvalue
p309
F0.99335300000000004
sVname
p310
Vcityscape
p311
sa(dp312
Vapp_id
p313
Vmain
p314
sVid
p315
Vai_JMZ5xhBD
p316
sVvalue
p317
F0.99098766000000005
sVname
p318
Vskyline
p319
sa(dp320
Vapp_id
p321
Vmain
p322
sVid
p323
Vai_VRmbGVWh
p324
sVvalue
p325
F0.98950119999999997
sVname
p326
Vtravel
p327
sa(dp328
Vapp_id
p329
Vmain
p330
sVid
p331
Vai_l4rCd5CF
p332
sVvalue
p333
F0.98918850000000003
sVname
p334
Vskyscraper
p335
sa(dp336
Vapp_id
p337
Vmain
p338
sVid
p339
Vai_rsX6XWc2
p340
sVvalue
p341
F0.98507809999999996
sVname
p342
Vbuilding
p343
sa(dp344
Vapp_id
p345
Vmain
p346
sVid
p347
Vai_fZNrv7gb
p348
sVvalue
p349
F0.98195034000000003
sVname
p350
Vdowntown
p351
sa(dp352
Vapp_id
p353
Vmain
p354
sVid
p355
Vai_786Zr311
p356
sVvalue
p357
F0.98005103999999998
sVname
p358
Vno person
p359
sa(dp360
Vapp_id
p361
Vmain
p362
sVid
p363
Vai_ll97lFvS
p364
sVvalue
p365
F0.96922920000000001
sVname
p366
Voffice
p367
sa(dp368
Vapp_id
p369
Vmain
p370
sVid
p371
Vai_lNsKfmXb
p372
sVvalue
p373
F0.96884669999999995
sVname
p374
Vsky
p375
sa(dp376
Vapp_id
p377
Vmain
p378
sVid
p379
Vai_Zmhsv0Ch
p380
sVvalue
p381
F0.96652970000000005
sVname
p382
Voutdoors
p383
sa(dp384
Vapp_id
p385
Vmain
p386
sVid
p387
Vai_CpFBRWzD
p388
sVvalue
p389
F0.96120779999999995
sVname
p390
Vurban
p391
sa(dp392
Vapp_id
p393
Vmain
p394
sVid
p395
Vai_4Qjv5PTH
p396
sVvalue
p397
F0.9563796
sVname
p398
Vmodern
p399
sa(dp400
Vapp_id
p401
Vmain
p402
sVid
p403
Vai_6lhccv44
p404
sVvalue
p405
F0.94513259999999999
sVname
p406
Vbusiness
p407
sa(dp408
Vapp_id
p409
Vmain
p410
sVid
p411
Vai_jvwJ2H7f
p412
sVvalue
p413
F0.93170120000000001
sVname
p414
Vsight
p415
sa(dp416
Vapp_id
p417
Vmain
p418
sVid
p419
Vai_0ng8dmF0
p420
sVvalue
p421
F0.92138299999999995
sVname
p422
Vtallest
p423
sa(dp424
Vapp_id
p425
Vmain
p426
sVid
p427
Vai_BJP7PBvG
p428
sVvalue
p429
F0.91783590000000004
sVname
p430
Vapartment
p431
sa(dp432
Vapp_id
p433
Vmain
p434
sVid
p435
Vai_Kggcgs4j
p436
sVvalue
p437
F0.91555226000000001
sVname
p438
Vtower
p439
sa(dp440
Vapp_id
p441
Vmain
p442
sVid
p443
Vai_pCnxWJZh
p444
sVvalue
p445
F0.90229800000000004
sVname
p446
Vcontemporary
p447
sassVid
p448
Va11bff89d1a943e1a53621ebe1728a8f
p449
sass.