ccopy_reg
_reconstructor
p1
(crequests.models
Response
p2
c__builtin__
object
p3
NtRp4
(dp5
S'cookies'
p6
g1
(crequests.cookies
RequestsCookieJar
p7
g3
NtRp8
(dp9
S'_now'
p10
I1532664329
sS'_policy'
p11
(icookielib
DefaultCookiePolicy
p12
(dp13
S'strict_rfc2965_unverifiable'
p14
I01
sS'strict_ns_domain'
p15
I0
sS'_allowed_domains'
p16
NsS'rfc2109_as_netscape'
p17
NsS'rfc2965'
p18
I00
sS'strict_domain'
p19
I00
sg10
I1532664329
sS'strict_ns_set_path'
p20
I00
sS'strict_ns_unverifiable'
p21
I00
sS'strict_ns_set_initial_dollar'
p22
I00
sS'hide_cookie2'
p23
I00
sS'_blocked_domains'
p24
(tsS'netscape'
p25
I01
sbsS'_cookies'
p26
(dp27
sbsS'_content'
p28
S'{"photos":{"page":1,"pages":5511,"perpage":250,"total":"1377633","photo":[{"id":"41670999432","owner":"126251698@N03","secret":"afb94968b4","server":"825","farm":1,"title":"City of Miami, Midtown neighborhood, Florida, USA","ispublic":1,"isfriend":0,"isfamily":0},{"id":"39368866904","owner":"126251698@N03","secret":"db30435264","server":"4720","farm":5,"title":"Cirque du Soleil, VOLTA, 347 Don Shula Drive, Miami Gardens, Miami-Dade County, Florida, USA","ispublic":1,"isfriend":0,"isfamily":0},{"id":"34461930516","owner":"132779055@N06","secret":"7a9143f2ea","server":"4176","farm":5,"title":"Drawbridge","ispublic":1,"isfriend":0,"isfamily":0},{"id":"33945830025","owner":"126251698@N03","secret":"751562556c","server":"2876","farm":3,"title":"City of Miami, Miami-Dade County, Florida, USA","ispublic":1,"isfriend":0,"isfamily":0},{"id":"31866644985","owner":"132779055@N06","secret":"fab4661520","server":"461","farm":1,"title":"Fire Rescue Training","ispublic":1,"isfriend":0,"isfamily":0},{"id":"31200489662","owner":"126251698@N03","secret":"56e2effa6f","server":"5338","farm":6,"title":"View of Midtown Miami, Florida, USA \\/ The Magic City","ispublic":1,"isfriend":0,"isfamily":0},{"id":"31156006615","owner":"126251698@N03","secret":"f0427fa4cf","server":"5474","farm":6,"title":"View of downtown Miami, Florida, USA \\/ The Magic City","ispublic":1,"isfriend":0,"isfamily":0},{"id":"27342311244","owner":"132779055@N06","secret":"a56bbc90b5","server":"7281","farm":8,"title":"Don\'t worry be happy","ispublic":1,"isfriend":0,"isfamily":0},{"id":"24988321940","owner":"51035555243@N01","secret":"9fd4902276","server":"1551","farm":2,"title":"Names","ispublic":1,"isfriend":0,"isfamily":0},{"id":"24421600421","owner":"132779055@N06","secret":"55c5d54b91","server":"1469","farm":2,"title":"A Ray of Hope","ispublic":1,"isfriend":0,"isfamily":0},{"id":"23622911560","owner":"51035555243@N01","secret":"10a0aa2b44","server":"638","farm":1,"title":"You Know What This Is","ispublic":1,"isfriend":0,"isfamily":0},{"id":"23463539032","owner":"126251698@N03","secret":"03885a25d2","server":"5646","farm":6,"title":"Miami-Dade County Courthouse, 73 West Flagler Street, Miami, Florida, U.S.A.  \\/ Architects: A. Ten Eyck Brown, August Geiger \\/ Completed: 1928","ispublic":1,"isfriend":0,"isfamily":0},{"id":"16637925805","owner":"42822927@N05","secret":"d9ebdc69ef","server":"8590","farm":9,"title":"Golden Moment","ispublic":1,"isfriend":0,"isfamily":0},{"id":"16129242747","owner":"55973292@N03","secret":"a0566495b2","server":"8666","farm":9,"title":"Florida | Wynwood Dazzle  [EXPLORE 2015.01.19]","ispublic":1,"isfriend":0,"isfamily":0},{"id":"13269603083","owner":"20905078@N04","secret":"ec2083d6af","server":"7005","farm":8,"title":"","ispublic":1,"isfriend":0,"isfamily":0},{"id":"8634463592","owner":"28794527@N00","secret":"0910b6594a","server":"8533","farm":9,"title":"kodak-gold-400-04-07-13-008","ispublic":1,"isfriend":0,"isfamily":0},{"id":"8272746705","owner":"33987755@N02","secret":"a54d01bd79","server":"8211","farm":9,"title":"Miami, FL","ispublic":1,"isfriend":0,"isfamily":0},{"id":"8228642046","owner":"33987755@N02","secret":"90b5a06c6f","server":"8063","farm":9,"title":"Miami, FL","ispublic":1,"isfriend":0,"isfamily":0},{"id":"8072524088","owner":"70154174@N04","secret":"13bfdcc352","server":"8450","farm":9,"title":"Downtown Miami 2","ispublic":1,"isfriend":0,"isfamily":0},{"id":"8039847160","owner":"76069050@N08","secret":"5f4e0e7a75","server":"8314","farm":9,"title":"Shining Miami","ispublic":1,"isfriend":0,"isfamily":0},{"id":"5907091431","owner":"13559836@N03","secret":"8fd2b6aae7","server":"5231","farm":6,"title":"Heat of the city","ispublic":1,"isfriend":0,"isfamily":0},{"id":"4745466385","owner":"35862337@N08","secret":"258f6983bb","server":"4136","farm":5,"title":"Leave Nothing Behind","ispublic":1,"isfriend":0,"isfamily":0},{"id":"67844492","owner":"50016673@N00","secret":"21467ac65a","server":"32","farm":1,"title":"Peace for Everyone","ispublic":1,"isfriend":0,"isfamily":0},{"id":"41714285205","owner":"134859823@N05","secret":"3ce5411d21","server":"1730","farm":2,"title":"Chair at Jax,s Beach","ispublic":1,"isfriend":0,"isfamily":0},{"id":"28426377058","owner":"53673076@N02","secret":"c1040f3264","server":"957","farm":1,"title":"Two Too Tired","ispublic":1,"isfriend":0,"isfamily":0},{"id":"25702640284","owner":"108546108@N08","secret":"3159047d6f","server":"1671","farm":2,"title":"Under the Bridge","ispublic":1,"isfriend":0,"isfamily":0},{"id":"22993522106","owner":"113086034@N04","secret":"edc8428847","server":"580","farm":1,"title":"Magic Kingdom Christmas","ispublic":1,"isfriend":0,"isfamily":0},{"id":"18079680496","owner":"33994682@N03","secret":"095d9313eb","server":"8756","farm":9,"title":"Skyway Lightning","ispublic":1,"isfriend":0,"isfamily":0},{"id":"17745162438","owner":"36609145@N02","secret":"5696cf571c","server":"5461","farm":6,"title":"Key West: il tramonto da Mallory Square","ispublic":1,"isfriend":0,"isfamily":0},{"id":"15895562343","owner":"91913274@N04","secret":"ee7d3eaf23","server":"7392","farm":8,"title":"Fort lauderdale beach, Florida, USA","ispublic":1,"isfriend":0,"isfamily":0},{"id":"15348417630","owner":"76309550@N06","secret":"ef172a999b","server":"3943","farm":4,"title":"Patience","ispublic":1,"isfriend":0,"isfamily":0},{"id":"13551585873","owner":"49109678@N04","secret":"3a75f595ee","server":"7144","farm":8,"title":"Brown to Bronze III: Contempo Night HDR","ispublic":1,"isfriend":0,"isfamily":0},{"id":"8587183224","owner":"67587247@N06","secret":"2db12ae046","server":"8096","farm":9,"title":"Double Tracks","ispublic":1,"isfriend":0,"isfamily":0},{"id":"8518074368","owner":"53477149@N02","secret":"5b986a0845","server":"8523","farm":9,"title":"Dinner Guest","ispublic":1,"isfriend":0,"isfamily":0},{"id":"8250786151","owner":"69094753@N05","secret":"a23fcb8aca","server":"8061","farm":9,"title":"DSC_2065_pp","ispublic":1,"isfriend":0,"isfamily":0},{"id":"7432294286","owner":"55140868@N08","secret":"4658624e74","server":"5442","farm":6,"title":"Poker Run 2010 023","ispublic":1,"isfriend":0,"isfamily":0},{"id":"6798172675","owner":"42786185@N06","secret":"24d69e6f86","server":"7013","farm":8,"title":"Eye Blink","ispublic":1,"isfriend":0,"isfamily":0},{"id":"5964453050","owner":"65473754@N02","secret":"f437a9a62a","server":"6150","farm":7,"title":"Polistes annularis my favorite of all paper wasps.","ispublic":1,"isfriend":0,"isfamily":0},{"id":"4268426577","owner":"10326501@N02","secret":"99a0be1fb7","server":"4070","farm":5,"title":"Gainesville Citrus Ice Castle","ispublic":1,"isfriend":0,"isfamily":0},{"id":"3762626928","owner":"23322134@N02","secret":"0e8742d2c2","server":"2448","farm":3,"title":"Daily Disney - Epcot China Parasols (Explored)","ispublic":1,"isfriend":0,"isfamily":0},{"id":"3348492236","owner":"17665808@N03","secret":"93aea0242a","server":"3463","farm":4,"title":"Incoming!","ispublic":1,"isfriend":0,"isfamily":0},{"id":"3104881213","owner":"92331629@N00","secret":"e758d91e40","server":"3239","farm":4,"title":"Pondering: What do I need for Christmas?","ispublic":1,"isfriend":0,"isfamily":0},{"id":"41850390010","owner":"75908149@N05","secret":"3d929c3a45","server":"842","farm":1,"title":"N500MF Douglas DC3C-TP KLAL 12-04-18","ispublic":1,"isfriend":0,"isfamily":0},{"id":"42927011924","owner":"69094753@N05","secret":"71345f5502","server":"920","farm":1,"title":"DSC_7547_fb","ispublic":1,"isfriend":0,"isfamily":0},{"id":"29756671998","owner":"95795254@N02","secret":"4e311928d9","server":"837","farm":1,"title":"Black-crowned Night-Heron 500_8293.jpg","ispublic":1,"isfriend":0,"isfamily":0},{"id":"43579057382","owner":"95795254@N02","secret":"a2f7629ee7","server":"846","farm":1,"title":"Baby Alligator 500_8260.jpg","ispublic":1,"isfriend":0,"isfamily":0},{"id":"43609542341","owner":"53673076@N02","secret":"42fdba560d","server":"856","farm":1,"title":"Snacks for Quacks","ispublic":1,"isfriend":0,"isfamily":0},{"id":"28713791657","owner":"53114796@N07","secret":"5a2748cf4a","server":"841","farm":1,"title":"Summer storm","ispublic":1,"isfriend":0,"isfamily":0},{"id":"28712994567","owner":"66550674@N06","secret":"8cdfb1f99b","server":"834","farm":1,"title":"My name is Tommy and I used to work here.","ispublic":1,"isfriend":0,"isfamily":0},{"id":"42876645124","owner":"93689361@N05","secret":"d2a46147b9","server":"838","farm":1,"title":"07-23-18-0028673","ispublic":1,"isfriend":0,"isfamily":0},{"id":"29670895778","owner":"95795254@N02","secret":"92bccfbdb7","server":"919","farm":1,"title":"Blue Dasher Dragonfly 500_6905.jpg","ispublic":1,"isfriend":0,"isfamily":0},{"id":"42773079364","owner":"93689361@N05","secret":"40899039f5","server":"1790","farm":2,"title":"07-18-18-0027958","ispublic":1,"isfriend":0,"isfamily":0},{"id":"28602698797","owner":"30641729@N00","secret":"20cb10c3ac","server":"1766","farm":2,"title":"June 28th Sunset","ispublic":1,"isfriend":0,"isfamily":0},{"id":"28602410147","owner":"136899684@N07","secret":"b55a5a9916","server":"1785","farm":2,"title":"Miami International Airport","ispublic":1,"isfriend":0,"isfamily":0},{"id":"43429290552","owner":"66550674@N06","secret":"227acde408","server":"1803","farm":2,"title":"Shoot the breeze","ispublic":1,"isfriend":0,"isfamily":0},{"id":"43456248911","owner":"46689459@N02","secret":"a4bf2c248b","server":"1767","farm":2,"title":"Sunset","ispublic":1,"isfriend":0,"isfamily":0},{"id":"42718456294","owner":"66550674@N06","secret":"3e989b25bf","server":"846","farm":1,"title":"If you want trouble...find yourself a redhead!","ispublic":1,"isfriend":0,"isfamily":0},{"id":"28546228367","owner":"42786185@N06","secret":"b5d46dd252","server":"924","farm":1,"title":"Lightner Museum \\/ City Hall","ispublic":1,"isfriend":0,"isfamily":0},{"id":"28529456537","owner":"60591747@N06","secret":"0fcf824402","server":"1826","farm":2,"title":"808 + 805, Ormond Beach FL, 6 July 2018","ispublic":1,"isfriend":0,"isfamily":0},{"id":"43372882941","owner":"46689459@N02","secret":"b309c9ccb3","server":"1783","farm":2,"title":"South Pointe Park - Miami Beach","ispublic":1,"isfriend":0,"isfamily":0},{"id":"42468260845","owner":"66550674@N06","secret":"c5a94722a2","server":"1764","farm":2,"title":"If the path be beautiful, lettuce not ask where it leads.","ispublic":1,"isfriend":0,"isfamily":0},{"id":"28478973927","owner":"47658583@N05","secret":"ac35fc9dc4","server":"914","farm":1,"title":"Tiny Green Spider #1","ispublic":1,"isfriend":0,"isfamily":0},{"id":"43281469992","owner":"66550674@N06","secret":"66d25e8c31","server":"1769","farm":2,"title":"\\"Don\'t look back unless you can smile; don\'t look ahead unless you can dream.\\"","ispublic":1,"isfriend":0,"isfamily":0},{"id":"42421285395","owner":"128369733@N04","secret":"b1e6b72341","server":"914","farm":1,"title":"Hard Rock Stadium","ispublic":1,"isfriend":0,"isfamily":0},{"id":"29442979218","owner":"60591747@N06","secret":"9599a07275","server":"834","farm":1,"title":"820 + 821 + 819 + 713, St Augustine FL,  24 June 2018","ispublic":1,"isfriend":0,"isfamily":0},{"id":"41464746850","owner":"60591747@N06","secret":"04db985f94","server":"1786","farm":2,"title":"806 + 807, Ormond Beach FL, 3 July 2018","ispublic":1,"isfriend":0,"isfamily":0},{"id":"41448836980","owner":"91183778@N08","secret":"a6f38e6c7a","server":"922","farm":1,"title":"Blanquita","ispublic":1,"isfriend":0,"isfamily":0},{"id":"29354018188","owner":"66550674@N06","secret":"ca77d72064","server":"919","farm":1,"title":"Just the two of us, building castles in the sky","ispublic":1,"isfriend":0,"isfamily":0},{"id":"41393306070","owner":"46689459@N02","secret":"05cf90ccd3","server":"914","farm":1,"title":"South Pointe Park - Miami Beach","ispublic":1,"isfriend":0,"isfamily":0},{"id":"28313759467","owner":"46689459@N02","secret":"d328055b1f","server":"841","farm":1,"title":"South Pointe Park - Miami Beach","ispublic":1,"isfriend":0,"isfamily":0},{"id":"28313757527","owner":"46689459@N02","secret":"febf578bfa","server":"1821","farm":2,"title":"South Pointe Park - Miami Beach","ispublic":1,"isfriend":0,"isfamily":0},{"id":"43133167282","owner":"46689459@N02","secret":"a0744551a9","server":"1825","farm":2,"title":"South Pointe Park - Miami Beach","ispublic":1,"isfriend":0,"isfamily":0},{"id":"41352223510","owner":"66550674@N06","secret":"cbf2f903b5","server":"1789","farm":2,"title":"My eyes are red, my beak is blue, some poems rhyme, this one doesn\'t.","ispublic":1,"isfriend":0,"isfamily":0},{"id":"43121315651","owner":"69094753@N05","secret":"706de53fdc","server":"1826","farm":2,"title":"DSC_2786_ppp","ispublic":1,"isfriend":0,"isfamily":0},{"id":"43098122051","owner":"66550674@N06","secret":"b58be0a5cf","server":"1805","farm":2,"title":"Three hungry mouths to feed","ispublic":1,"isfriend":0,"isfamily":0},{"id":"41271956570","owner":"14023968@N06","secret":"1d278978d8","server":"1807","farm":2,"title":"#LEGOBrightline","ispublic":1,"isfriend":0,"isfamily":0},{"id":"43022219592","owner":"128369733@N04","secret":"6e2cd2cef1","server":"927","farm":1,"title":"Lowtide At Bahia Honda Bridge","ispublic":1,"isfriend":0,"isfamily":0},{"id":"43052866171","owner":"66550674@N06","secret":"428ecdc927","server":"1786","farm":2,"title":"They also serve who only stand and wade","ispublic":1,"isfriend":0,"isfamily":0},{"id":"41227307730","owner":"132779055@N06","secret":"8d14aaa2d1","server":"1781","farm":2,"title":"Go Fish","ispublic":1,"isfriend":0,"isfamily":0},{"id":"43010174651","owner":"66550674@N06","secret":"9e08af5278","server":"1781","farm":2,"title":"Baby face, you\'ve got the cutest little baby face!","ispublic":1,"isfriend":0,"isfamily":0},{"id":"43002573971","owner":"7422037@N06","secret":"3ec0288ce2","server":"880","farm":1,"title":"Richard Royal","ispublic":1,"isfriend":0,"isfamily":0},{"id":"42249728214","owner":"46689459@N02","secret":"4b7c0473b3","server":"1797","farm":2,"title":"South Pointe Park - Miami Beach","ispublic":1,"isfriend":0,"isfamily":0},{"id":"42916634802","owner":"51035555243@N01","secret":"2468041068","server":"1774","farm":2,"title":"New American Glamour","ispublic":1,"isfriend":0,"isfamily":0},{"id":"42909584332","owner":"66550674@N06","secret":"2c1e5f75bb","server":"1783","farm":2,"title":"\\"Wait...what?\\"","ispublic":1,"isfriend":0,"isfamily":0},{"id":"41142276790","owner":"98620640@N02","secret":"1e87eac081","server":"1774","farm":2,"title":"I\\u2019m Watching You!","ispublic":1,"isfriend":0,"isfamily":0},{"id":"42232872154","owner":"159070028@N08","secret":"afc63942bd","server":"1835","farm":2,"title":"Sunset@Pier60, Clearwater Beach Florida *Nature\'s Portraits Inspiration*","ispublic":1,"isfriend":0,"isfamily":0},{"id":"42232644894","owner":"78157566@N05","secret":"356421d38f","server":"1777","farm":2,"title":"St Joe Sunset [EXPLORED #4]","ispublic":1,"isfriend":0,"isfamily":0},{"id":"42906490201","owner":"46689459@N02","secret":"110c2fa09b","server":"900","farm":1,"title":"Ocean Drive - South Beach","ispublic":1,"isfriend":0,"isfamily":0},{"id":"28037831407","owner":"46689459@N02","secret":"713fd57b1b","server":"1782","farm":2,"title":"Ocean Drive - South Beach","ispublic":1,"isfriend":0,"isfamily":0},{"id":"28037825927","owner":"46689459@N02","secret":"ddae4132a4","server":"1822","farm":2,"title":"Collins Ave.- South Beach","ispublic":1,"isfriend":0,"isfamily":0},{"id":"42906472451","owner":"46689459@N02","secret":"c0e506b9a2","server":"1770","farm":2,"title":"Collins Ave. - South Beach","ispublic":1,"isfriend":0,"isfamily":0},{"id":"42005682625","owner":"46689459@N02","secret":"121d1a5c55","server":"1822","farm":2,"title":"Dolce Vita - South Beach","ispublic":1,"isfriend":0,"isfamily":0},{"id":"28037807357","owner":"46689459@N02","secret":"b26b61cf85","server":"1786","farm":2,"title":"Collins Ave. - South Beach","ispublic":1,"isfriend":0,"isfamily":0},{"id":"42170075914","owner":"152234007@N06","secret":"8edc5521f6","server":"1736","farm":2,"title":"Vizcaya gardens","ispublic":1,"isfriend":0,"isfamily":0},{"id":"41981926155","owner":"7422037@N06","secret":"0d6fd360ca","server":"1745","farm":2,"title":"The Salvador Dali Museum","ispublic":1,"isfriend":0,"isfamily":0},{"id":"41042119080","owner":"87128840@N02","secret":"411784acca","server":"1781","farm":2,"title":"Cattle Egret (EXPLORE, June 17 2018, #31)","ispublic":1,"isfriend":0,"isfamily":0},{"id":"41947721275","owner":"53673076@N02","secret":"39cde1e2ef","server":"1741","farm":2,"title":"The Road That Wasn\'t","ispublic":1,"isfriend":0,"isfamily":0},{"id":"41030569250","owner":"46689459@N02","secret":"beb8ce8cd7","server":"1765","farm":2,"title":"The Villa, Casa Casuarina - Versaces House","ispublic":1,"isfriend":0,"isfamily":0},{"id":"41029341840","owner":"46689459@N02","secret":"062d1e62df","server":"1790","farm":2,"title":"South Beach","ispublic":1,"isfriend":0,"isfamily":0},{"id":"42817764661","owner":"53673076@N02","secret":"8a73ed762d","server":"1747","farm":2,"title":"In a Huff","ispublic":1,"isfriend":0,"isfamily":0},{"id":"40966953960","owner":"7422037@N06","secret":"e03d69ff46","server":"891","farm":1,"title":"The Good Life","ispublic":1,"isfriend":0,"isfamily":0},{"id":"42059174524","owner":"15025283@N06","secret":"cd959f7934","server":"1739","farm":2,"title":"Royal Tern Landing","ispublic":1,"isfriend":0,"isfamily":0},{"id":"40958602240","owner":"142995416@N07","secret":"46da3f2295","server":"1758","farm":2,"title":"Art Deco","ispublic":1,"isfriend":0,"isfamily":0},{"id":"42049578274","owner":"54785709@N08","secret":"c0679cef99","server":"891","farm":1,"title":"Eastern Bluebird","ispublic":1,"isfriend":0,"isfamily":0},{"id":"42693979442","owner":"66550674@N06","secret":"94ef0ffc99","server":"1754","farm":2,"title":"Spoon-fed","ispublic":1,"isfriend":0,"isfamily":0},{"id":"42737856481","owner":"75908149@N05","secret":"16f4b92f08","server":"1727","farm":2,"title":"N927VA Airbus A321-251N KMIA 17-04-18","ispublic":1,"isfriend":0,"isfamily":0},{"id":"28808660428","owner":"66550674@N06","secret":"18e4ed01e5","server":"1759","farm":2,"title":"\\"Every bird thinks its own nest beautiful.\\"","ispublic":1,"isfriend":0,"isfamily":0},{"id":"41956751814","owner":"7422037@N06","secret":"fc6d3415b8","server":"1759","farm":2,"title":"The Chihuly Collection","ispublic":1,"isfriend":0,"isfamily":0},{"id":"27760922787","owner":"66550674@N06","secret":"11d73c6f1b","server":"1755","farm":2,"title":"I\'m hooked on quack","ispublic":1,"isfriend":0,"isfamily":0},{"id":"28741290568","owner":"124450184@N05","secret":"79b6a27d7f","server":"1755","farm":2,"title":"Common Moorhen","ispublic":1,"isfriend":0,"isfamily":0},{"id":"42513563192","owner":"7156765@N05","secret":"7532844de7","server":"1751","farm":2,"title":"Fort Lauderdale  Florida - Beach Frontage - Winter Break","ispublic":1,"isfriend":0,"isfamily":0},{"id":"41843153774","owner":"7156765@N05","secret":"8119c86511","server":"1756","farm":2,"title":"Fort Lauderdale  Florida - Beach Frontage - Spring Break","ispublic":1,"isfriend":0,"isfamily":0},{"id":"42508623582","owner":"134859823@N05","secret":"d467191890","server":"1728","farm":2,"title":"Pelican Head","ispublic":1,"isfriend":0,"isfamily":0},{"id":"28683872278","owner":"136068894@N06","secret":"04d8af0a0d","server":"1726","farm":2,"title":"\\u201cFor whatever we lose (like a you or a me); It\\u2019s always our self we find in the sea.\\u201d       \\u2014e.e. cummings","ispublic":1,"isfriend":0,"isfamily":0},{"id":"41638594975","owner":"75908149@N05","secret":"3658c984f3","server":"1737","farm":2,"title":"XA-ESF Boeing B737-490F KMIA 08-04-18","ispublic":1,"isfriend":0,"isfamily":0},{"id":"40722124180","owner":"75908149@N05","secret":"7889b04c36","server":"1753","farm":2,"title":"N598EL Airbus A318-111 KMIA 19-04-18","ispublic":1,"isfriend":0,"isfamily":0},{"id":"27653586517","owner":"76062956@N08","secret":"c322073448","server":"1723","farm":2,"title":"A woman rappelling from the roof of the DoubleTree by Hilton hotel at Over The Edge Tallahassee.","ispublic":1,"isfriend":0,"isfamily":0},{"id":"41794300124","owner":"7422037@N06","secret":"33c9e2004d","server":"1730","farm":2,"title":"The Leafy Seadragon","ispublic":1,"isfriend":0,"isfamily":0},{"id":"42465053012","owner":"15140450@N04","secret":"9f976b5f9b","server":"1757","farm":2,"title":"_SG_2018_04_0263_IMG_7744","ispublic":1,"isfriend":0,"isfamily":0},{"id":"28639980708","owner":"72174300@N00","secret":"e0d9a62312","server":"1760","farm":2,"title":"Miami Pano - Zoom it and see Notes for locations","ispublic":1,"isfriend":0,"isfamily":0},{"id":"28634518908","owner":"15140450@N04","secret":"35fab73c0a","server":"1734","farm":2,"title":"_SG_2018_04_0267_IMG_7775","ispublic":1,"isfriend":0,"isfamily":0},{"id":"42434478942","owner":"15140450@N04","secret":"5d13602d06","server":"1741","farm":2,"title":"_SG_2018_04_0300_IMG_7919","ispublic":1,"isfriend":0,"isfamily":0},{"id":"42414768412","owner":"15140450@N04","secret":"8357814bf3","server":"1760","farm":2,"title":"_SG_2018_04_0293_IMG_7891","ispublic":1,"isfriend":0,"isfamily":0},{"id":"40650470600","owner":"15140450@N04","secret":"90c395872b","server":"894","farm":1,"title":"_SG_2018_04_0290_IMG_7878","ispublic":1,"isfriend":0,"isfamily":0},{"id":"41712718684","owner":"75908149@N05","secret":"1a37d20b8f","server":"1758","farm":2,"title":"N498TA Airbus A320-233 KMIA 16-04-18","ispublic":1,"isfriend":0,"isfamily":0},{"id":"42384772932","owner":"15140450@N04","secret":"346fa395ce","server":"1731","farm":2,"title":"_SG_2018_04_0286_IMG_7864","ispublic":1,"isfriend":0,"isfamily":0},{"id":"42429961761","owner":"7156765@N05","secret":"e32e0fc779","server":"889","farm":1,"title":"St Augustine  Florida - Ponce de Leon Hotel - Flagler College -  Lobby Area","ispublic":1,"isfriend":0,"isfamily":0},{"id":"42429961491","owner":"7156765@N05","secret":"a2620fc4f4","server":"1725","farm":2,"title":"St Augustine  Florida - Ponce de Leon Hotel - Flagler College -  Staircase","ispublic":1,"isfriend":0,"isfamily":0},{"id":"42425410981","owner":"75908149@N05","secret":"8d193de637","server":"885","farm":1,"title":"EI-DIR Airbus A330-202 KMIA 17-04-18","ispublic":1,"isfriend":0,"isfamily":0},{"id":"42422013831","owner":"15140450@N04","secret":"63343712af","server":"1741","farm":2,"title":"_SG_2018_04_0283_IMG_7853","ispublic":1,"isfriend":0,"isfamily":0},{"id":"41695264264","owner":"25955895@N03","secret":"500d482364","server":"1743","farm":2,"title":"Hollywood Beach Florida","ispublic":1,"isfriend":0,"isfamily":0},{"id":"27539259587","owner":"7422037@N06","secret":"06acee3e7c","server":"1749","farm":2,"title":"Twilight in Trinity","ispublic":1,"isfriend":0,"isfamily":0},{"id":"41506327205","owner":"126251698@N03","secret":"5af89c1bef","server":"1725","farm":2,"title":"Cathedral of Saint Mary, 7525 NW 2nd Avenue, Miami, Florida, USA \\/ Built: 1957 \\/ Architectural Style: Spanish Colonial Revival \\/ Denomination: Roman Catholic Church","ispublic":1,"isfriend":0,"isfamily":0},{"id":"40600875250","owner":"126251698@N03","secret":"870eb3f4d5","server":"1741","farm":2,"title":"Cathedral of Saint Mary, 7525 NW 2nd Avenue, Miami, Florida, USA \\/ Built: 1957 \\/ Architectural Style: Spanish Colonial Revival \\/ Denomination: Roman Catholic Church","ispublic":1,"isfriend":0,"isfamily":0},{"id":"40600867090","owner":"126251698@N03","secret":"b2f130b950","server":"885","farm":1,"title":"Cathedral of Saint Mary, 7525 NW 2nd Avenue, Miami, Florida, USA \\/ Built: 1957 \\/ Architectural Style: Spanish Colonial Revival \\/ Denomination: Roman Catholic Church","ispublic":1,"isfriend":0,"isfamily":0},{"id":"40600857410","owner":"126251698@N03","secret":"0aa1eb9510","server":"1740","farm":2,"title":"Cathedral of Saint Mary, 7525 NW 2nd Avenue, Miami, Florida, USA \\/ Built: 1957 \\/ Architectural Style: Spanish Colonial Revival \\/ Denomination: Roman Catholic Church","ispublic":1,"isfriend":0,"isfamily":0},{"id":"40600852120","owner":"126251698@N03","secret":"c7b21b02c1","server":"1721","farm":2,"title":"Cathedral of Saint Mary, 7525 NW 2nd Avenue, Miami, Florida, USA \\/ Built: 1957 \\/ Architectural Style: Spanish Colonial Revival \\/ Denomination: Roman Catholic Church","ispublic":1,"isfriend":0,"isfamily":0},{"id":"42358742722","owner":"126251698@N03","secret":"701b9de638","server":"1729","farm":2,"title":"Cathedral of Saint Mary, 7525 NW 2nd Avenue, Miami, Florida, USA \\/ Built: 1957 \\/ Architectural Style: Spanish Colonial Revival \\/ Denomination: Roman Catholic Church","ispublic":1,"isfriend":0,"isfamily":0},{"id":"40600847310","owner":"126251698@N03","secret":"c76a8c02fd","server":"874","farm":1,"title":"Cathedral of Saint Mary, 7525 NW 2nd Avenue, Miami, Florida, USA \\/ Built: 1957 \\/ Architectural Style: Spanish Colonial Revival \\/ Denomination: Roman Catholic Church","ispublic":1,"isfriend":0,"isfamily":0},{"id":"42358732562","owner":"126251698@N03","secret":"3e720871f2","server":"898","farm":1,"title":"Cathedral of Saint Mary, 7525 NW 2nd Avenue, Miami, Florida, USA \\/ Built: 1957 \\/ Architectural Style: Spanish Colonial Revival \\/ Denomination: Roman Catholic Church","ispublic":1,"isfriend":0,"isfamily":0},{"id":"27528619027","owner":"15140450@N04","secret":"1040e60d7f","server":"1748","farm":2,"title":"_SG_2018_04_0280_IMG_7830","ispublic":1,"isfriend":0,"isfamily":0},{"id":"41669768324","owner":"126251698@N03","secret":"427ab2c004","server":"1736","farm":2,"title":"Cathedral of Saint Mary, 7525 NW 2nd Avenue, Miami, Florida, USA \\/ Built: 1957 \\/ Architectural Style: Spanish Colonial Revival \\/ Denomination: Roman Catholic Church","ispublic":1,"isfriend":0,"isfamily":0},{"id":"41669765164","owner":"126251698@N03","secret":"b815ce9362","server":"882","farm":1,"title":"Cathedral of Saint Mary, 7525 NW 2nd Avenue, Miami, Florida, USA \\/ Built: 1957 \\/ Architectural Style: Spanish Colonial Revival \\/ Denomination: Roman Catholic Church","ispublic":1,"isfriend":0,"isfamily":0},{"id":"41668164744","owner":"126251698@N03","secret":"22e3cd6697","server":"1731","farm":2,"title":"Cathedral of Saint Mary, 7525 NW 2nd Avenue, Miami, Florida, USA \\/ Built: 1957 \\/ Architectural Style: Spanish Colonial Revival \\/ Denomination: Roman Catholic Church","ispublic":1,"isfriend":0,"isfamily":0},{"id":"42389415791","owner":"7156765@N05","secret":"80ccc1c963","server":"1728","farm":2,"title":"Vizcaya Museum and Gardens ~ Miami  Florida   - Gardens","ispublic":1,"isfriend":0,"isfamily":0},{"id":"42389413831","owner":"7156765@N05","secret":"6da9b4d027","server":"1757","farm":2,"title":"Palm Beach Florida - Breakers Hotel - Historic","ispublic":1,"isfriend":0,"isfamily":0},{"id":"27517518577","owner":"72174300@N00","secret":"9fcb90cc97","server":"897","farm":1,"title":"Lonely Tree","ispublic":1,"isfriend":0,"isfamily":0},{"id":"42384730831","owner":"53673076@N02","secret":"63050564b8","server":"1756","farm":2,"title":"Sacred Place","ispublic":1,"isfriend":0,"isfamily":0},{"id":"28510323898","owner":"54788905@N00","secret":"5ba153ec4a","server":"1745","farm":2,"title":"Sillage du Norwegian Jade quittant le port de Miami - 5583","ispublic":1,"isfriend":0,"isfamily":0},{"id":"42329478802","owner":"126251698@N03","secret":"d0e382f78a","server":"1743","farm":2,"title":"Cathedral of Saint Mary, 7525 NW 2nd Avenue, Miami, Florida, USA \\/ Built: 1957 \\/ Architectural Style: Spanish Colonial Revival \\/ Denomination: Roman Catholic Church","ispublic":1,"isfriend":0,"isfamily":0},{"id":"41475447935","owner":"126251698@N03","secret":"4d2196fbf4","server":"1756","farm":2,"title":"Cathedral of Saint Mary, 7525 NW 2nd Avenue, Miami, Florida, USA \\/ Built: 1957 \\/ Architectural Style: Spanish Colonial Revival \\/ Denomination: Roman Catholic Church","ispublic":1,"isfriend":0,"isfamily":0},{"id":"42328706842","owner":"126251698@N03","secret":"68dbe8a686","server":"874","farm":1,"title":"Cathedral of Saint Mary, 7525 NW 2nd Avenue, Miami, Florida, USA \\/ Built: 1957 \\/ Architectural Style: Spanish Colonial Revival \\/ Denomination: Roman Catholic Church","ispublic":1,"isfriend":0,"isfamily":0},{"id":"27507623687","owner":"126251698@N03","secret":"b5fbef0129","server":"1734","farm":2,"title":"Cathedral of Saint Mary, 7525 NW 2nd Avenue, Miami, Florida, USA \\/ Built: 1957 \\/ Architectural Style: Spanish Colonial Revival \\/ Denomination: Roman Catholic Church","ispublic":1,"isfriend":0,"isfamily":0},{"id":"42326635652","owner":"24453624@N07","secret":"13bfe7b1bd","server":"1726","farm":2,"title":"South Beach","ispublic":1,"isfriend":0,"isfamily":0},{"id":"41472146265","owner":"54788905@N00","secret":"1dfc6b19d0","server":"1721","farm":2,"title":"Port de Miami en noir et blanc, USA - 5545","ispublic":1,"isfriend":0,"isfamily":0},{"id":"42325414742","owner":"126251698@N03","secret":"8912822320","server":"1735","farm":2,"title":"Cathedral of Saint Mary, 7525 NW 2nd Avenue, Miami, Florida, USA \\/ Built: 1957 \\/ Architectural Style: Spanish Colonial Revival \\/ Denomination: Roman Catholic Church","ispublic":1,"isfriend":0,"isfamily":0},{"id":"41650880724","owner":"126251698@N03","secret":"e9991a63c7","server":"1758","farm":2,"title":"Cathedral of Saint Mary, 7525 NW 2nd Avenue, Miami, Florida, USA \\/ Built: 1957 \\/ Architectural Style: Spanish Colonial Revival \\/ Denomination: Roman Catholic Church","ispublic":1,"isfriend":0,"isfamily":0},{"id":"27504319657","owner":"126251698@N03","secret":"b60abffafe","server":"1743","farm":2,"title":"Cathedral of Saint Mary, 7525 NW 2nd Avenue, Miami, Florida, USA \\/ Built: 1957 \\/ Architectural Style: Spanish Colonial Revival \\/ Denomination: Roman Catholic Church","ispublic":1,"isfriend":0,"isfamily":0},{"id":"40559840660","owner":"15140450@N04","secret":"5c98a32275","server":"1755","farm":2,"title":"_SG_2018_04_0279_IMG_7829","ispublic":1,"isfriend":0,"isfamily":0},{"id":"42316120202","owner":"126251698@N03","secret":"70818c62ef","server":"1738","farm":2,"title":"Cathedral of Saint Mary, 7525 NW 2nd Avenue, Miami, Florida, USA \\/ Built: 1957 \\/ Architectural Style: Spanish Colonial Revival \\/ Denomination: Roman Catholic Church","ispublic":1,"isfriend":0,"isfamily":0},{"id":"40556799430","owner":"54788905@N00","secret":"56bb42837e","server":"1740","farm":2,"title":"Norwegian Jade quittant le port de Miami - 5550","ispublic":1,"isfriend":0,"isfamily":0},{"id":"41461065295","owner":"126251698@N03","secret":"58cea7255c","server":"1738","farm":2,"title":"Cathedral of Saint Mary, 7525 NW 2nd Avenue, Miami, Florida, USA \\/ Built: 1957 \\/ Architectural Style: Spanish Colonial Revival \\/ Denomination: Roman Catholic Church","ispublic":1,"isfriend":0,"isfamily":0},{"id":"42362323621","owner":"126251698@N03","secret":"6346abea42","server":"1727","farm":2,"title":"Cathedral of Saint Mary, 7525 NW 2nd Avenue, Miami, Florida, USA \\/ Built: 1957 \\/ Architectural Style: Spanish Colonial Revival \\/ Denomination: Roman Catholic Church","ispublic":1,"isfriend":0,"isfamily":0},{"id":"41635969334","owner":"95795254@N02","secret":"dffde85901","server":"1759","farm":2,"title":"Snowy Egret - Concentration 500_5788.jpg","ispublic":1,"isfriend":0,"isfamily":0},{"id":"42308556642","owner":"15140450@N04","secret":"5ec39ba377","server":"1724","farm":2,"title":"_SG_2018_04_0275_IMG_7807","ispublic":1,"isfriend":0,"isfamily":0},{"id":"42352638711","owner":"54788905@N00","secret":"9a0c3304e3","server":"874","farm":1,"title":"Carnival Vista et Glory, MSC Seaside, port de Miami - 5534","ispublic":1,"isfriend":0,"isfamily":0},{"id":"41624851484","owner":"58628800@N05","secret":"d5a1e70a0e","server":"1734","farm":2,"title":"Polizia","ispublic":1,"isfriend":0,"isfamily":0},{"id":"28462065438","owner":"15140450@N04","secret":"5c9f264631","server":"1758","farm":2,"title":"_SG_2018_04_0274_IMG_7805","ispublic":1,"isfriend":0,"isfamily":0},{"id":"42289844621","owner":"7156765@N05","secret":"897f173c4e","server":"970","farm":1,"title":"St Augustine  Florida - Ponce de Leon Hotel - Flagler College -  Dining Room","ispublic":1,"isfriend":0,"isfamily":0},{"id":"40470824190","owner":"7156765@N05","secret":"34c5c3fb62","server":"828","farm":1,"title":"Whitehall - Flagler Museum - Exterior - Architecture Neoclassical -  Beaux-Arts - Palm Beach  Florida","ispublic":1,"isfriend":0,"isfamily":0},{"id":"41375407585","owner":"72174300@N00","secret":"fa38882898","server":"945","farm":1,"title":"The Sea and the Sky","ispublic":1,"isfriend":0,"isfamily":0},{"id":"42261086281","owner":"38998307@N05","secret":"ab4b8248cd","server":"832","farm":1,"title":"N461UP | Boeing 757-24APF | UPS - United Parcel Service","ispublic":1,"isfriend":0,"isfamily":0},{"id":"42247398421","owner":"75908149@N05","secret":"705ed1d34e","server":"949","farm":1,"title":"N381FE.KMIA180418","ispublic":1,"isfriend":0,"isfamily":0},{"id":"42247398381","owner":"75908149@N05","secret":"08cfc4e565","server":"905","farm":1,"title":"CS-TOW.KMIA-180518","ispublic":1,"isfriend":0,"isfamily":0},{"id":"28369774408","owner":"66550674@N06","secret":"9d02957bff","server":"910","farm":1,"title":"Sing like no one is listening","ispublic":1,"isfriend":0,"isfamily":0},{"id":"41512953044","owner":"7156765@N05","secret":"1280a8c110","server":"912","farm":1,"title":"St Augustine  Florida - Ponce de Leon Hotel - Flagler College - Historic","ispublic":1,"isfriend":0,"isfamily":0},{"id":"41512951964","owner":"7156765@N05","secret":"15bbb0fc9d","server":"944","farm":1,"title":"St Augustine  Florida - Ponce de Leon Hotel - Flagler College - Interior Dome","ispublic":1,"isfriend":0,"isfamily":0},{"id":"41512950674","owner":"7156765@N05","secret":"ebcb10b4f0","server":"973","farm":1,"title":"St Augustine  Florida - Ponce de Leon Hotel - Flagler College -  Lobby Area","ispublic":1,"isfriend":0,"isfamily":0},{"id":"42220511911","owner":"66550674@N06","secret":"3223434149","server":"903","farm":1,"title":"Balance of power","ispublic":1,"isfriend":0,"isfamily":0},{"id":"28342374338","owner":"24453624@N07","secret":"eccf3ccdae","server":"949","farm":1,"title":"Sunset","ispublic":1,"isfriend":0,"isfamily":0},{"id":"41312186815","owner":"7156765@N05","secret":"248ffa7483","server":"954","farm":1,"title":"Mar-a-Logo Resort - Donald Trump - Palm Beach - Florida","ispublic":1,"isfriend":0,"isfamily":0},{"id":"28320731258","owner":"7422037@N06","secret":"8e959dcbe3","server":"909","farm":1,"title":"Beach Life","ispublic":1,"isfriend":0,"isfamily":0},{"id":"27297311847","owner":"53673076@N02","secret":"25988d9dc6","server":"980","farm":1,"title":"Deep in the Grove","ispublic":1,"isfriend":0,"isfamily":0},{"id":"41258540895","owner":"66550674@N06","secret":"81c523fda1","server":"829","farm":1,"title":"Drowlsy","ispublic":1,"isfriend":0,"isfamily":0},{"id":"42079108062","owner":"116427736@N08","secret":"35630907c5","server":"977","farm":1,"title":"Baywatch","ispublic":1,"isfriend":0,"isfamily":0},{"id":"41219987425","owner":"53673076@N02","secret":"bb51566223","server":"952","farm":1,"title":"Blooming Lovely","ispublic":1,"isfriend":0,"isfamily":0},{"id":"41385051434","owner":"8231395@N04","secret":"57425ffcc8","server":"955","farm":1,"title":"Morning Glory","ispublic":1,"isfriend":0,"isfamily":0},{"id":"28184606878","owner":"72174300@N00","secret":"1ac6af4154","server":"978","farm":1,"title":"Hobie Beach","ispublic":1,"isfriend":0,"isfamily":0},{"id":"42052784611","owner":"75908149@N05","secret":"a831e0aeb5","server":"973","farm":1,"title":"N742CK Boeing B747-446CF KMIA 17-04-18","ispublic":1,"isfriend":0,"isfamily":0},{"id":"42052784521","owner":"75908149@N05","secret":"702ffee246","server":"975","farm":1,"title":"OE-LAT Boeing B767-31A(ER) KMIA 18-04-18","ispublic":1,"isfriend":0,"isfamily":0},{"id":"41142634645","owner":"7422037@N06","secret":"2936c8ab8f","server":"968","farm":1,"title":"Beach Flower","ispublic":1,"isfriend":0,"isfamily":0},{"id":"28138457418","owner":"148212790@N02","secret":"94ac904807","server":"949","farm":1,"title":"Cornus florida \\"rubra\\"","ispublic":1,"isfriend":0,"isfamily":0},{"id":"40177712300","owner":"53673076@N02","secret":"210ce8fbfb","server":"976","farm":1,"title":"Scented","ispublic":1,"isfriend":0,"isfamily":0},{"id":"41244510754","owner":"66550674@N06","secret":"192dbd82a7","server":"947","farm":1,"title":"Gator photobomb","ispublic":1,"isfriend":0,"isfamily":0},{"id":"41896092742","owner":"39273888@N00","secret":"7943c880ab","server":"829","farm":1,"title":"American alligator (Alligator mississippiensis)","ispublic":1,"isfriend":0,"isfamily":0},{"id":"41924570521","owner":"126251698@N03","secret":"5c25eb6048","server":"829","farm":1,"title":"Museum of Contemporary Art, 770 NE 125 Street, North Miami, Florida, USA","ispublic":1,"isfriend":0,"isfamily":0},{"id":"27054337537","owner":"126251698@N03","secret":"3993f4b6bb","server":"967","farm":1,"title":"Museum of Contemporary Art, 770 NE 125 Street, North Miami, Florida, USA","ispublic":1,"isfriend":0,"isfamily":0},{"id":"28052600258","owner":"126251698@N03","secret":"5feeccdd18","server":"957","farm":1,"title":"Museum of Contemporary Art, 770 NE 125 Street, North Miami, Florida, USA","ispublic":1,"isfriend":0,"isfamily":0},{"id":"41023969015","owner":"126251698@N03","secret":"33de075162","server":"970","farm":1,"title":"North Miami City Hall, 776 NE 125 Street, North Miami, Florida, USA","ispublic":1,"isfriend":0,"isfamily":0},{"id":"40109425470","owner":"66550674@N06","secret":"49e9532671","server":"979","farm":1,"title":"Floyd","ispublic":1,"isfriend":0,"isfamily":0},{"id":"41974681354","owner":"72174300@N00","secret":"d040728ef8","server":"1753","farm":2,"title":"Brickell Ave","ispublic":1,"isfriend":0,"isfamily":0},{"id":"25902102907","owner":"126251698@N03","secret":"456da0891e","server":"4772","farm":5,"title":"City of Miami, Miami-Dade County, Florida, USA","ispublic":1,"isfriend":0,"isfamily":0},{"id":"25727468017","owner":"38072007@N06","secret":"1a7b031c63","server":"4781","farm":5,"title":"2018_004","ispublic":1,"isfriend":0,"isfamily":0},{"id":"28975855410","owner":"7702423@N04","secret":"a481e4d901","server":"8166","farm":9,"title":"Trinity Episcopal Cathedral - Miami, Florida - August 14, 2016","ispublic":1,"isfriend":0,"isfamily":0},{"id":"16563439379","owner":"11156606@N07","secret":"379973da38","server":"7640","farm":8,"title":"Avianca Airbus A318-111 N589AV S\\/N:2575","ispublic":1,"isfriend":0,"isfamily":0},{"id":"16443363388","owner":"126251698@N03","secret":"f3676a7572","server":"8664","farm":9,"title":"Southeast Financial Center,  200 S Biscayne Blvd, Miami, Florida, U.S.A. \\/ Architects: Skidmore, Owings & Merrill LLP  \\/ Spillis Candela & Partners \\/ Completed: 1984 \\/ Architectural Style: Modernism","ispublic":1,"isfriend":0,"isfamily":0},{"id":"16317961100","owner":"42822927@N05","secret":"6673828c72","server":"7311","farm":8,"title":"Only a Light Breeze...","ispublic":1,"isfriend":0,"isfamily":0},{"id":"14961227378","owner":"42822927@N05","secret":"c7501b942f","server":"3917","farm":4,"title":"Beyond Dusk","ispublic":1,"isfriend":0,"isfamily":0},{"id":"8642056024","owner":"29011382@N02","secret":"fcbb03dac2","server":"8262","farm":9,"title":"untitled","ispublic":1,"isfriend":0,"isfamily":0},{"id":"8029631673","owner":"12185056@N02","secret":"c58975db54","server":"8169","farm":9,"title":"Yellow-throated Warbler (Setophaga dominica) (Dendroica dominica)","ispublic":1,"isfriend":0,"isfamily":0},{"id":"6436360601","owner":"18922711@N00","secret":"e1bf3c1f69","server":"7018","farm":8,"title":"Bet you can\'t find the orang!","ispublic":1,"isfriend":0,"isfamily":0},{"id":"5982019492","owner":"43605557@N06","secret":"c5e6344a30","server":"6007","farm":7,"title":"","ispublic":1,"isfriend":0,"isfamily":0},{"id":"4546547482","owner":"91486426@N00","secret":"424d7e727b","server":"4056","farm":5,"title":"Crinkly Yellow Tabebuia blossoms are covering the ground here in Miami!","ispublic":1,"isfriend":0,"isfamily":0},{"id":"4465015902","owner":"91486426@N00","secret":"1c5d8394eb","server":"4037","farm":5,"title":"Glorious White Bauhinia flower is already generating a fuzzy green seed pod for next year","ispublic":1,"isfriend":0,"isfamily":0},{"id":"32397240962","owner":"36804699@N00","secret":"24387f48b4","server":"776","farm":1,"title":"Sandbar strut {Explored}","ispublic":1,"isfriend":0,"isfamily":0},{"id":"25450887045","owner":"48708043@N00","secret":"95b44c86ae","server":"1657","farm":2,"title":"Tres Amigos","ispublic":1,"isfriend":0,"isfamily":0},{"id":"16287591323","owner":"16155010@N04","secret":"a6658337c1","server":"7584","farm":8,"title":"Monk Skipper (Asbolis capucinus)","ispublic":1,"isfriend":0,"isfamily":0},{"id":"13951440417","owner":"35079936@N07","secret":"d8c56e9d0c","server":"5157","farm":6,"title":"C57A9945 - Common starling - European starling - Sturnus vulgaris","ispublic":1,"isfriend":0,"isfamily":0},{"id":"13297973733","owner":"28531664@N00","secret":"c0c44aca0c","server":"7002","farm":8,"title":"Burning Heart (And Golden Eyes?) -- IMRAN\\u2122 -- 1500+ Views!","ispublic":1,"isfriend":0,"isfamily":0},{"id":"9216200129","owner":"54660125@N04","secret":"84104cae73","server":"3786","farm":4,"title":"SURREAL","ispublic":1,"isfriend":0,"isfamily":0},{"id":"8346142902","owner":"65825924@N03","secret":"da1cb9d3f2","server":"8215","farm":9,"title":"Sunset at The Magic Kingdom","ispublic":1,"isfriend":0,"isfamily":0},{"id":"8339790127","owner":"50753203@N02","secret":"30c5272679","server":"8358","farm":9,"title":"Wonder","ispublic":1,"isfriend":0,"isfamily":0},{"id":"6813054398","owner":"38181364@N03","secret":"4d8c6b4db6","server":"7188","farm":8,"title":"Lauderdale-by-the-Sea","ispublic":1,"isfriend":0,"isfamily":0},{"id":"5039805729","owner":"23614976@N06","secret":"e49baa5177","server":"4091","farm":5,"title":"The Skimmer...","ispublic":1,"isfriend":0,"isfamily":0},{"id":"3271131222","owner":"86139151@N00","secret":"78c1b05cf0","server":"3109","farm":4,"title":"Dream on","ispublic":1,"isfriend":0,"isfamily":0},{"id":"3238645799","owner":"59984889@N00","secret":"f3f6941ef1","server":"3302","farm":4,"title":"Tropic Cinema","ispublic":1,"isfriend":0,"isfamily":0},{"id":"2403247225","owner":"93485355@N00","secret":"82f93c9b70","server":"2090","farm":3,"title":"correr m\\u00e1s lejos, volar m\\u00e1s alto","ispublic":1,"isfriend":0,"isfamily":0},{"id":"2340078825","owner":"11638484@N06","secret":"2de8852931","server":"2289","farm":3,"title":"Palm Warbler (Dendroica palmarum) (Setophaga palmarum) - yellow (Eastern) and Western","ispublic":1,"isfriend":0,"isfamily":0},{"id":"43372877151","owner":"46689459@N02","secret":"d7e916ed75","server":"1823","farm":2,"title":"South Pointe Park - Miami Beach","ispublic":1,"isfriend":0,"isfamily":0},{"id":"43372872191","owner":"46689459@N02","secret":"711d4ca8e9","server":"834","farm":1,"title":"South Pointe Park - Miami Beach","ispublic":1,"isfriend":0,"isfamily":0},{"id":"42982324041","owner":"75908149@N05","secret":"6f43a212aa","server":"884","farm":1,"title":"N379CX Boeing B767-323F KMIA 19-04-18","ispublic":1,"isfriend":0,"isfamily":0},{"id":"29105033258","owner":"75908149@N05","secret":"9721353a61","server":"1773","farm":2,"title":"A7-ALN Airbus A350-941 KMIA 19-04-18","ispublic":1,"isfriend":0,"isfamily":0},{"id":"42792896162","owner":"46689459@N02","secret":"36e4c37910","server":"1742","farm":2,"title":"Ocean Drive - South Beach","ispublic":1,"isfriend":0,"isfamily":0},{"id":"41030559100","owner":"46689459@N02","secret":"b07239b0a9","server":"1725","farm":2,"title":"Ocean Drive - South Beach","ispublic":1,"isfriend":0,"isfamily":0},{"id":"41850091534","owner":"15140450@N04","secret":"d399ab4d11","server":"1738","farm":2,"title":"_SG_2018_04_0259_IMG_7710","ispublic":1,"isfriend":0,"isfamily":0},{"id":"42497464472","owner":"15140450@N04","secret":"2d765772b9","server":"1738","farm":2,"title":"_SG_2018_04_0271_1_IMG_7790","ispublic":1,"isfriend":0,"isfamily":0},{"id":"41820259534","owner":"7156765@N05","secret":"ca2d5829e9","server":"1741","farm":2,"title":"St Augustine  -  Florida  -  Former Warden Winter Home - Ripley\'s Believe It or Not Museum","ispublic":1,"isfriend":0,"isfamily":0},{"id":"41574792995","owner":"15140450@N04","secret":"9ed3e7ecbc","server":"1749","farm":2,"title":"_SG_2018_04_0296_IMG_7906","ispublic":1,"isfriend":0,"isfamily":0},{"id":"40636240410","owner":"15140450@N04","secret":"ff1711ee4c","server":"1724","farm":2,"title":"_SG_2018_04_0288_IMG_7872","ispublic":1,"isfriend":0,"isfamily":0},{"id":"42425410941","owner":"75908149@N05","secret":"90a907bcd0","server":"1732","farm":2,"title":"N371CM Boeing B767-338(ER)F KMIA 16-04-18","ispublic":1,"isfriend":0,"isfamily":0},{"id":"42363389422","owner":"15140450@N04","secret":"43b60f86f7","server":"1755","farm":2,"title":"_SG_2018_04_0282_IMG_7849","ispublic":1,"isfriend":0,"isfamily":0},{"id":"42389375261","owner":"15140450@N04","secret":"be37faf094","server":"1744","farm":2,"title":"_SG_2018_04_0276_IMG_7818","ispublic":1,"isfriend":0,"isfamily":0},{"id":"42315613242","owner":"54788905@N00","secret":"e3efd381e4","server":"1737","farm":2,"title":"Gratte-ciels et plage de Miami - 5558","ispublic":1,"isfriend":0,"isfamily":0},{"id":"41444714345","owner":"15140450@N04","secret":"1e2063481a","server":"1747","farm":2,"title":"_SG_2018_04_0273_IMG_7804","ispublic":1,"isfriend":0,"isfamily":0},{"id":"42332607431","owner":"7156765@N05","secret":"49c77792fa","server":"902","farm":1,"title":"St. Augustine  Florida - Casa Monica Hotel - Historic Hotels of America","ispublic":1,"isfriend":0,"isfamily":0},{"id":"27246802087","owner":"152234007@N06","secret":"9a4e665de6","server":"973","farm":1,"title":"Lincoln Rd. duet","ispublic":1,"isfriend":0,"isfamily":0},{"id":"27228590927","owner":"95795254@N02","secret":"bece481cd1","server":"830","farm":1,"title":"Pileated Woodpecker - Female - Searching for lunch 500_6870.jpg","ispublic":1,"isfriend":0,"isfamily":0},{"id":"27178051407","owner":"53055958@N00","secret":"0da06034bb","server":"963","farm":1,"title":"Flea Market: vintage rocket toy","ispublic":1,"isfriend":0,"isfamily":0},{"id":"41936965521","owner":"13111532@N07","secret":"240420cd41","server":"829","farm":1,"title":"Moonrise over Cocoa Beach.","ispublic":1,"isfriend":0,"isfamily":0},{"id":"27040534697","owner":"75908149@N05","secret":"23678bdc8b","server":"904","farm":1,"title":"EI-EJK Airbus A330-202 KMIA 19-04-18","ispublic":1,"isfriend":0,"isfamily":0}]},"stat":"ok"}'
p29
sS'encoding'
p30
NsS'url'
p31
Vhttps://api.flickr.com/services/rest/?sort=relevance&has_geo=true&nojsoncallback=1&format=json&tags=miami%2C+florida&method=flickr.photos.search&content_type=1&per_page=500&api_key=92cd8d03af0235c7f0301a87dabedb55&page=1&accuracy=10
p32
sS'status_code'
p33
I200
sS'request'
p34
g1
(crequests.models
PreparedRequest
p35
g3
NtRp36
(dp37
S'body'
p38
Nsg31
S'https://api.flickr.com/services/rest/?sort=relevance&has_geo=true&nojsoncallback=1&format=json&tags=miami%2C+florida&method=flickr.photos.search&content_type=1&per_page=500&api_key=92cd8d03af0235c7f0301a87dabedb55&page=1&accuracy=10'
p39
sS'hooks'
p40
(dp41
S'response'
p42
(lp43
ssS'headers'
p44
g1
(crequests.structures
CaseInsensitiveDict
p45
g3
NtRp46
(dp47
S'_store'
p48
curllib3.packages.ordered_dict
OrderedDict
p49
((lp50
(lp51
S'connection'
p52
a(S'Connection'
p53
S'keep-alive'
p54
tp55
aa(lp56
S'accept-encoding'
p57
a(S'Accept-Encoding'
p58
S'gzip, deflate'
tp59
aa(lp60
S'accept'
p61
a(S'Accept'
p62
S'*/*'
p63
tp64
aa(lp65
S'user-agent'
p66
a(S'User-Agent'
p67
S'python-requests/2.18.4'
tp68
aatRp69
sbsS'_body_position'
p70
Nsg26
g1
(g7
g3
NtRp71
(dp72
g10
I1532664328
sg11
(icookielib
DefaultCookiePolicy
p73
(dp74
g14
I01
sg15
I0
sg16
Nsg17
Nsg18
I00
sg19
I00
sg10
I1532664328
sg20
I00
sg21
I00
sg22
I00
sg23
I00
sg24
(tsg25
I01
sbsg26
(dp75
sbsS'method'
p76
S'GET'
p77
sbsS'elapsed'
p78
cdatetime
timedelta
p79
(I0
I1
I710293
tRp80
sg44
g1
(g45
g3
NtRp81
(dp82
g48
g49
((lp83
(lp84
S'date'
p85
a(S'Date'
p86
S'Fri, 27 Jul 2018 04:05:29 GMT'
p87
tp88
aa(lp89
S'content-type'
p90
a(S'Content-Type'
p91
S'application/json'
p92
tp93
aa(lp94
S'content-length'
p95
a(S'Content-Length'
p96
S'10519'
p97
tp98
aa(lp99
S'p3p'
p100
a(S'P3P'
p101
S'policyref="https://policies.yahoo.com/w3c/p3p.xml", CP="CAO DSP COR CUR ADM DEV TAI PSA PSD IVAi IVDi CONi TELo OTPi OUR DELi SAMi OTRi UNRi PUBi IND PHY ONL UNI PUR FIN COM NAV INT DEM CNT STA POL HEA PRE LOC GOV"'
p102
tp103
aa(lp104
S'x-content-type-options'
p105
a(S'X-Content-Type-Options'
p106
S'nosniff'
p107
tp108
aa(lp109
S'cache-control'
p110
a(S'Cache-Control'
p111
S'private'
p112
tp113
aa(lp114
S'x-served-by'
p115
a(S'X-Served-By'
p116
S'www320.flickr.bf1.yahoo.com'
p117
tp118
aa(lp119
S'x-frame-options'
p120
a(S'X-Frame-Options'
p121
S'SAMEORIGIN'
p122
tp123
aa(lp124
S'vary'
p125
a(S'Vary'
p126
S'Accept-Encoding'
p127
tp128
aa(lp129
S'content-encoding'
p130
a(S'Content-Encoding'
p131
S'gzip'
p132
tp133
aa(lp134
S'age'
p135
a(S'Age'
p136
S'2'
tp137
aa(lp138
S'via'
p139
a(S'Via'
p140
S'http/1.1 fts102.flickr.bf1.yahoo.com (ApacheTrafficServer [cMsSf ]), http/1.1 e13.ycpi.daa.yahoo.com (ApacheTrafficServer [cMsSf ])'
p141
tp142
aa(lp143
S'server'
p144
a(S'Server'
p145
S'ATS'
p146
tp147
aa(lp148
S'connection'
p149
a(S'Connection'
p150
S'keep-alive'
p151
tp152
aa(lp153
S'strict-transport-security'
p154
a(S'Strict-Transport-Security'
p155
S'max-age=15552000'
p156
tp157
aa(lp158
S'expect-ct'
p159
a(S'Expect-CT'
p160
S'max-age=31536000, report-uri="http://csp.yahoo.com/beacon/csp?src=yahoocom-expect-ct-report-only"'
p161
tp162
aa(lp163
S'public-key-pins-report-only'
p164
a(S'Public-Key-Pins-Report-Only'
p165
S'max-age=2592000; pin-sha256="2fRAUXyxl4A1/XHrKNBmc8bTkzA7y4FB/GLJuNAzCqY="; pin-sha256="2oALgLKofTmeZvoZ1y/fSZg7R9jPMix8eVA6DH4o/q8="; pin-sha256="Gtk3r1evlBrs0hG3fm3VoM19daHexDWP//OCmeeMr5M="; pin-sha256="I/Lt/z7ekCWanjD0Cvj5EqXls2lOaThEA0H2Bg4BT/o="; pin-sha256="JbQbUG5JMJUoI6brnx0x3vZF6jilxsapbXGVfjhN8Fg="; pin-sha256="SVqWumuteCQHvVIaALrOZXuzVVVeS7f4FGxxu6V+es4="; pin-sha256="UZJDjsNp1+4M5x9cbbdflB779y5YRBcV6Z6rBMLIrO4="; pin-sha256="Wd8xe/qfTwq3ylFNd3IpaqLHZbh2ZNCLluVzmeNkcpw="; pin-sha256="WoiWRyIOVNa9ihaBciRSC7XHjliYS9VwUGOIud4PB18="; pin-sha256="cAajgxHlj7GTSEIzIYIQxmEloOSoJq7VOaxWHfv72QM="; pin-sha256="dolnbtzEBnELx/9lOEQ22e6OZO/QNb6VSSX2XHA3E7A="; pin-sha256="i7WTqTvh0OioIruIfFR4kMPnBqrS2rdiVPl/s2uC/CY="; pin-sha256="iduNzFNKpwYZ3se/XV+hXcbUonlLw09QPa6AYUwpu4M="; pin-sha256="lnsM2T/O9/J84sJFdnrpsFp3awZJ+ZZbYpCWhGloaHI="; pin-sha256="r/mIkG3eEpVdm+u/ko/cwxzOMo1bk4TyHIlByibiA5E="; pin-sha256="uUwZgwDOxcBXrQcntwu+kYFpkiVkOaezL0WYEZ3anJc="; includeSubdomains; report-uri="http://csp.yahoo.com/beacon/csp?src=yahoocom-hpkp-report-only"'
p166
tp167
aatRp168
sbsS'reason'
p169
S'OK'
p170
sS'history'
p171
(lp172
sb.