(dp1
S'travel'
p2
(dp3
Vstatus
p4
(dp5
Vcode
p6
I10000
sVdescription
p7
VOk
p8
ssVoutputs
p9
(lp10
(dp11
Vstatus
p12
(dp13
Vcode
p14
I10000
sVdescription
p15
VOk
p16
ssVcreated_at
p17
V2018-07-27T03:55:14.854395748Z
p18
sVinput
p19
(dp20
Vdata
p21
(dp22
Vimage
p23
(dp24
Vurl
p25
Vhttps://farm8.staticflickr.com/7349/16217243430_9c95a3b4b5_b.jpg
p26
sssVid
p27
Vf466af7ff6f246dcb535019006f8dc50
p28
ssVmodel
p29
(dp30
Vdisplay_name
p31
VTravel
p32
sVname
p33
Vtravel-v1.0
p34
sVoutput_info
p35
(dp36
Vtype_ext
p37
Vconcept
p38
sVmessage
p39
VShow output_info with: GET /models/{model_id}/output_info
p40
sVtype
p41
Vconcept
p42
ssVcreated_at
p43
V2016-09-17T22:18:59.955626Z
p44
sVapp_id
p45
Vmain
p46
sVmodel_version
p47
(dp48
Vstatus
p49
(dp50
Vcode
p51
I21100
sVdescription
p52
VModel trained successfully
p53
ssVcreated_at
p54
V2016-09-17T22:18:59.955626Z
p55
sVid
p56
Vd2ffbf9730fd41fea79063270847be82
p57
ssVid
p58
Veee28c313d69466f836ab83287a54ed9
p59
ssVdata
p60
(dp61
Vconcepts
p62
(lp63
(dp64
Vapp_id
p65
Vmain
p66
sVid
p67
Vai_XB2b9m4v
p68
sVvalue
p69
F0.83421665
sVname
p70
VSummer
p71
sa(dp72
Vapp_id
p73
Vmain
p74
sVid
p75
Vai_VvRQQ216
p76
sVvalue
p77
F0.75364050000000005
sVname
p78
VBeach
p79
sa(dp80
Vapp_id
p81
Vmain
p82
sVid
p83
Vai_8lSXGvks
p84
sVvalue
p85
F0.73148566000000004
sVname
p86
VView
p87
sa(dp88
Vapp_id
p89
Vmain
p90
sVid
p91
Vai_TCZdTr6B
p92
sVvalue
p93
F0.55036390000000002
sVname
p94
VYoga
p95
sa(dp96
Vapp_id
p97
Vmain
p98
sVid
p99
Vai_4jNtvp5v
p100
sVvalue
p101
F0.47657593999999998
sVname
p102
VAutumn
p103
sa(dp104
Vapp_id
p105
Vmain
p106
sVid
p107
Vai_zdZZcgX8
p108
sVvalue
p109
F0.44188233999999998
sVname
p110
VSurroundings
p111
sa(dp112
Vapp_id
p113
Vmain
p114
sVid
p115
Vai_T4GN2Cdl
p116
sVvalue
p117
F0.32153618
sVname
p118
VWater Sports
p119
sa(dp120
Vapp_id
p121
Vmain
p122
sVid
p123
Vai_q4dFqXVs
p124
sVvalue
p125
F0.24228488000000001
sVname
p126
VBoat
p127
sa(dp128
Vapp_id
p129
Vmain
p130
sVid
p131
Vai_hmSzCZd5
p132
sVvalue
p133
F0.15473888999999999
sVname
p134
VDaytime
p135
sa(dp136
Vapp_id
p137
Vmain
p138
sVid
p139
Vai_sf6B79BS
p140
sVvalue
p141
F0.086279670000000003
sVname
p142
VSports & Activities
p143
sa(dp144
Vapp_id
p145
Vmain
p146
sVid
p147
Vai_CVQVtMzc
p148
sVvalue
p149
F0.067654450000000005
sVname
p150
VNighttime
p151
sa(dp152
Vapp_id
p153
Vmain
p154
sVid
p155
Vai_lt2nKTB2
p156
sVvalue
p157
F0.061377965
sVname
p158
VTerrace
p159
sa(dp160
Vapp_id
p161
Vmain
p162
sVid
p163
Vai_N09hW8gK
p164
sVvalue
p165
F0.055102949999999998
sVname
p166
VMassage
p167
sa(dp168
Vapp_id
p169
Vmain
p170
sVid
p171
Vai_m7PCbqbx
p172
sVvalue
p173
F0.045884809999999998
sVname
p174
VGolf Course
p175
sa(dp176
Vapp_id
p177
Vmain
p178
sVid
p179
Vai_qDnbBFvp
p180
sVvalue
p181
F0.045507765999999998
sVname
p182
VBalcony
p183
sa(dp184
Vapp_id
p185
Vmain
p186
sVid
p187
Vai_2jkxl4Fz
p188
sVvalue
p189
F0.045233740000000001
sVname
p190
VSpring
p191
sa(dp192
Vapp_id
p193
Vmain
p194
sVid
p195
Vai_dXWGf1bz
p196
sVvalue
p197
F0.036588725000000002
sVname
p198
VBuilding
p199
sa(dp200
Vapp_id
p201
Vmain
p202
sVid
p203
Vai_rRbfXwwx
p204
sVvalue
p205
F0.035131663
sVname
p206
VChair
p207
sa(dp208
Vapp_id
p209
Vmain
p210
sVid
p211
Vai_C2l5BqC3
p212
sVvalue
p213
F0.035127274999999999
sVname
p214
VSauna
p215
sa(dp216
Vapp_id
p217
Vmain
p218
sVid
p219
Vai_CtFL0TP6
p220
sVvalue
p221
F0.028060587000000001
sVname
p222
VWellness & Spa
p223
sassVid
p224
V46b2b69bb2a94b76abb8f4aaa976af24
p225
sassS'general'
p226
(dp227
Vstatus
p228
(dp229
Vcode
p230
I10000
sVdescription
p231
VOk
p232
ssVoutputs
p233
(lp234
(dp235
Vstatus
p236
(dp237
Vcode
p238
I10000
sVdescription
p239
VOk
p240
ssVcreated_at
p241
V2018-07-27T03:55:14.392625707Z
p242
sVinput
p243
(dp244
Vdata
p245
(dp246
Vimage
p247
(dp248
Vurl
p249
Vhttps://farm8.staticflickr.com/7349/16217243430_9c95a3b4b5_b.jpg
p250
sssVid
p251
V88c43d7b937e45269bd610388219172e
p252
ssVmodel
p253
(dp254
Vdisplay_name
p255
VGeneral
p256
sVname
p257
Vgeneral-v1.3
p258
sVoutput_info
p259
(dp260
Vtype_ext
p261
Vconcept
p262
sVmessage
p263
VShow output_info with: GET /models/{model_id}/output_info
p264
sVtype
p265
Vconcept
p266
ssVcreated_at
p267
V2016-03-09T17:11:39.608845Z
p268
sVapp_id
p269
Vmain
p270
sVmodel_version
p271
(dp272
Vstatus
p273
(dp274
Vcode
p275
I21100
sVdescription
p276
VModel trained successfully
p277
ssVcreated_at
p278
V2016-07-13T01:19:12.147644Z
p279
sVid
p280
Vaa9ca48295b37401f8af92ad1af0d91d
p281
ssVid
p282
Vaaa03c23b3724a16a56b629203edc62c
p283
ssVdata
p284
(dp285
Vconcepts
p286
(lp287
(dp288
Vapp_id
p289
Vmain
p290
sVid
p291
Vai_XNxf76KN
p292
sVvalue
p293
F0.99882760000000004
sVname
p294
Vsunset
p295
sa(dp296
Vapp_id
p297
Vmain
p298
sVid
p299
Vai_lN6KXkcl
p300
sVvalue
p301
F0.9918728
sVname
p302
Vdawn
p303
sa(dp304
Vapp_id
p305
Vmain
p306
sVid
p307
Vai_BlL0wSQh
p308
sVvalue
p309
F0.98817056000000003
sVname
p310
Vwater
p311
sa(dp312
Vapp_id
p313
Vmain
p314
sVid
p315
Vai_1d4Qk7Nr
p316
sVvalue
p317
F0.9839717
sVname
p318
Vsun
p319
sa(dp320
Vapp_id
p321
Vmain
p322
sVid
p323
Vai_PJQHT1jg
p324
sVvalue
p325
F0.98163560000000005
sVname
p326
Vevening
p327
sa(dp328
Vapp_id
p329
Vmain
p330
sVid
p331
Vai_7bRKqWjp
p332
sVvalue
p333
F0.98077046999999995
sVname
p334
Vsea
p335
sa(dp336
Vapp_id
p337
Vmain
p338
sVid
p339
Vai_23p8Lb8k
p340
sVvalue
p341
F0.97972049999999999
sVname
p342
Vdusk
p343
sa(dp344
Vapp_id
p345
Vmain
p346
sVid
p347
Vai_J1hw9SFJ
p348
sVvalue
p349
F0.96496440000000006
sVname
p350
Vbeach
p351
sa(dp352
Vapp_id
p353
Vmain
p354
sVid
p355
Vai_xZgtf58b
p356
sVvalue
p357
F0.96389449999999999
sVname
p358
Vocean
p359
sa(dp360
Vapp_id
p361
Vmain
p362
sVid
p363
Vai_lNsKfmXb
p364
sVvalue
p365
F0.95835369999999998
sVname
p366
Vsky
p367
sa(dp368
Vapp_id
p369
Vmain
p370
sVid
p371
Vai_786Zr311
p372
sVvalue
p373
F0.94995487000000001
sVname
p374
Vno person
p375
sa(dp376
Vapp_id
p377
Vmain
p378
sVid
p379
Vai_41s912fX
p380
sVvalue
p381
F0.92980706999999996
sVname
p382
Vfair weather
p383
sa(dp384
Vapp_id
p385
Vmain
p386
sVid
p387
Vai_V0zg5ppH
p388
sVvalue
p389
F0.91495059999999995
sVname
p390
Vseascape
p391
sa(dp392
Vapp_id
p393
Vmain
p394
sVid
p395
Vai_tBcWlsCp
p396
sVvalue
p397
F0.89903560000000005
sVname
p398
Vnature
p399
sa(dp400
Vapp_id
p401
Vmain
p402
sVid
p403
Vai_MTvKbKJv
p404
sVvalue
p405
F0.88601209999999997
sVname
p406
Vlandscape
p407
sa(dp408
Vapp_id
p409
Vmain
p410
sVid
p411
Vai_mlrv94tv
p412
sVvalue
p413
F0.88029610000000003
sVname
p414
Vreflection
p415
sa(dp416
Vapp_id
p417
Vmain
p418
sVid
p419
Vai_FsT0Zqdb
p420
sVvalue
p421
F0.8573636
sVname
p422
Vsummer
p423
sa(dp424
Vapp_id
p425
Vmain
p426
sVid
p427
Vai_n9vjC1jB
p428
sVvalue
p429
F0.85410553
sVname
p430
Vlight
p431
sa(dp432
Vapp_id
p433
Vmain
p434
sVid
p435
Vai_VRmbGVWh
p436
sVvalue
p437
F0.84322819999999998
sVname
p438
Vtravel
p439
sa(dp440
Vapp_id
p441
Vmain
p442
sVid
p443
Vai_jWFxtpH1
p444
sVvalue
p445
F0.82886875000000004
sVname
p446
Vseashore
p447
sassVid
p448
Vfec88185c77f447aa39618f82b6d15dd
p449
sass.