(dp1
S'travel'
p2
(dp3
Vstatus
p4
(dp5
Vcode
p6
I10000
sVdescription
p7
VOk
p8
ssVoutputs
p9
(lp10
(dp11
Vstatus
p12
(dp13
Vcode
p14
I10000
sVdescription
p15
VOk
p16
ssVcreated_at
p17
V2018-07-27T03:44:16.972316061Z
p18
sVinput
p19
(dp20
Vdata
p21
(dp22
Vimage
p23
(dp24
Vurl
p25
Vhttps://farm2.staticflickr.com/1749/42440903712_1798fa20b9_b.jpg
p26
sssVid
p27
V4c9a7fc30a5c41caaa95b78e159e3855
p28
ssVmodel
p29
(dp30
Vdisplay_name
p31
VTravel
p32
sVname
p33
Vtravel-v1.0
p34
sVoutput_info
p35
(dp36
Vtype_ext
p37
Vconcept
p38
sVmessage
p39
VShow output_info with: GET /models/{model_id}/output_info
p40
sVtype
p41
Vconcept
p42
ssVcreated_at
p43
V2016-09-17T22:18:59.955626Z
p44
sVapp_id
p45
Vmain
p46
sVmodel_version
p47
(dp48
Vstatus
p49
(dp50
Vcode
p51
I21100
sVdescription
p52
VModel trained successfully
p53
ssVcreated_at
p54
V2016-09-17T22:18:59.955626Z
p55
sVid
p56
Vd2ffbf9730fd41fea79063270847be82
p57
ssVid
p58
Veee28c313d69466f836ab83287a54ed9
p59
ssVdata
p60
(dp61
Vconcepts
p62
(lp63
(dp64
Vapp_id
p65
Vmain
p66
sVid
p67
Vai_2jkxl4Fz
p68
sVvalue
p69
F0.81020254000000003
sVname
p70
VSpring
p71
sa(dp72
Vapp_id
p73
Vmain
p74
sVid
p75
Vai_XB2b9m4v
p76
sVvalue
p77
F0.75410825000000004
sVname
p78
VSummer
p79
sa(dp80
Vapp_id
p81
Vmain
p82
sVid
p83
Vai_zdZZcgX8
p84
sVvalue
p85
F0.69153863000000004
sVname
p86
VSurroundings
p87
sa(dp88
Vapp_id
p89
Vmain
p90
sVid
p91
Vai_MbpTFJxj
p92
sVvalue
p93
F0.5816365
sVname
p94
VGarden
p95
sa(dp96
Vapp_id
p97
Vmain
p98
sVid
p99
Vai_4jNtvp5v
p100
sVvalue
p101
F0.53237889999999999
sVname
p102
VAutumn
p103
sa(dp104
Vapp_id
p105
Vmain
p106
sVid
p107
Vai_KpHGGkfp
p108
sVvalue
p109
F0.34320476999999999
sVname
p110
VFountain
p111
sa(dp112
Vapp_id
p113
Vmain
p114
sVid
p115
Vai_J2x9qKdS
p116
sVvalue
p117
F0.22984911999999999
sVname
p118
VAnimals
p119
sa(dp120
Vapp_id
p121
Vmain
p122
sVid
p123
Vai_m7PCbqbx
p124
sVvalue
p125
F0.16757158999999999
sVname
p126
VGolf Course
p127
sa(dp128
Vapp_id
p129
Vmain
p130
sVid
p131
Vai_VvRQQ216
p132
sVvalue
p133
F0.16658843000000001
sVname
p134
VBeach
p135
sa(dp136
Vapp_id
p137
Vmain
p138
sVid
p139
Vai_1gfzSbdC
p140
sVvalue
p141
F0.15848207
sVname
p142
VEntrance
p143
sa(dp144
Vapp_id
p145
Vmain
p146
sVid
p147
Vai_zF1MvGHt
p148
sVvalue
p149
F0.14082376999999999
sVname
p150
VTelevision
p151
sa(dp152
Vapp_id
p153
Vmain
p154
sVid
p155
Vai_TCZdTr6B
p156
sVvalue
p157
F0.12832700999999999
sVname
p158
VYoga
p159
sa(dp160
Vapp_id
p161
Vmain
p162
sVid
p163
Vai_hmSzCZd5
p164
sVvalue
p165
F0.12096786
sVname
p166
VDaytime
p167
sa(dp168
Vapp_id
p169
Vmain
p170
sVid
p171
Vai_8v2Tm2Gl
p172
sVvalue
p173
F0.118640386
sVname
p174
VHot Tub
p175
sa(dp176
Vapp_id
p177
Vmain
p178
sVid
p179
Vai_T4GN2Cdl
p180
sVvalue
p181
F0.10754763000000001
sVname
p182
VWater Sports
p183
sa(dp184
Vapp_id
p185
Vmain
p186
sVid
p187
Vai_B1nLlMJ8
p188
sVvalue
p189
F0.10640564600000001
sVname
p190
VWedding
p191
sa(dp192
Vapp_id
p193
Vmain
p194
sVid
p195
Vai_hjvL4F9K
p196
sVvalue
p197
F0.097857979999999997
sVname
p198
VWinter
p199
sa(dp200
Vapp_id
p201
Vmain
p202
sVid
p203
Vai_PtsQBLC8
p204
sVvalue
p205
F0.089488789999999999
sVname
p206
VFireplace
p207
sa(dp208
Vapp_id
p209
Vmain
p210
sVid
p211
Vai_zTxfQQKH
p212
sVvalue
p213
F0.085619210000000001
sVname
p214
VKids Area
p215
sa(dp216
Vapp_id
p217
Vmain
p218
sVid
p219
Vai_TSHwchFP
p220
sVvalue
p221
F0.074735016000000001
sVname
p222
VCommunal Areas
p223
sassVid
p224
Ve32534faae1d42058bafed876586cfd1
p225
sassS'general'
p226
(dp227
Vstatus
p228
(dp229
Vcode
p230
I10000
sVdescription
p231
VOk
p232
ssVoutputs
p233
(lp234
(dp235
Vstatus
p236
(dp237
Vcode
p238
I10000
sVdescription
p239
VOk
p240
ssVcreated_at
p241
V2018-07-27T03:44:16.397726776Z
p242
sVinput
p243
(dp244
Vdata
p245
(dp246
Vimage
p247
(dp248
Vurl
p249
Vhttps://farm2.staticflickr.com/1749/42440903712_1798fa20b9_b.jpg
p250
sssVid
p251
Vac3d2eb4eef649d98370187d23740b46
p252
ssVmodel
p253
(dp254
Vdisplay_name
p255
VGeneral
p256
sVname
p257
Vgeneral-v1.3
p258
sVoutput_info
p259
(dp260
Vtype_ext
p261
Vconcept
p262
sVmessage
p263
VShow output_info with: GET /models/{model_id}/output_info
p264
sVtype
p265
Vconcept
p266
ssVcreated_at
p267
V2016-03-09T17:11:39.608845Z
p268
sVapp_id
p269
Vmain
p270
sVmodel_version
p271
(dp272
Vstatus
p273
(dp274
Vcode
p275
I21100
sVdescription
p276
VModel trained successfully
p277
ssVcreated_at
p278
V2016-07-13T01:19:12.147644Z
p279
sVid
p280
Vaa9ca48295b37401f8af92ad1af0d91d
p281
ssVid
p282
Vaaa03c23b3724a16a56b629203edc62c
p283
ssVdata
p284
(dp285
Vconcepts
p286
(lp287
(dp288
Vapp_id
p289
Vmain
p290
sVid
p291
Vai_MTvKbKJv
p292
sVvalue
p293
F0.99349310000000002
sVname
p294
Vlandscape
p295
sa(dp296
Vapp_id
p297
Vmain
p298
sVid
p299
Vai_tBcWlsCp
p300
sVvalue
p301
F0.99158369999999996
sVname
p302
Vnature
p303
sa(dp304
Vapp_id
p305
Vmain
p306
sVid
p307
Vai_fZxMPT5l
p308
sVvalue
p309
F0.9884037
sVname
p310
Vriver
p311
sa(dp312
Vapp_id
p313
Vmain
p314
sVid
p315
Vai_zFnPQdgB
p316
sVvalue
p317
F0.98715779999999997
sVname
p318
Vwood
p319
sa(dp320
Vapp_id
p321
Vmain
p322
sVid
p323
Vai_DN4GFtff
p324
sVvalue
p325
F0.9843906
sVname
p326
Vmoss
p327
sa(dp328
Vapp_id
p329
Vmain
p330
sVid
p331
Vai_BlL0wSQh
p332
sVvalue
p333
F0.98336654999999995
sVname
p334
Vwater
p335
sa(dp336
Vapp_id
p337
Vmain
p338
sVid
p339
Vai_TjbmxC6B
p340
sVvalue
p341
F0.97476273999999996
sVname
p342
Vtree
p343
sa(dp344
Vapp_id
p345
Vmain
p346
sVid
p347
Vai_2dJvmjC5
p348
sVvalue
p349
F0.97356520000000002
sVname
p350
Vstream
p351
sa(dp352
Vapp_id
p353
Vmain
p354
sVid
p355
Vai_LmFtHz7q
p356
sVvalue
p357
F0.9585631
sVname
p358
Vfall
p359
sa(dp360
Vapp_id
p361
Vmain
p362
sVid
p363
Vai_ms7bQmJj
p364
sVvalue
p365
F0.95582020000000001
sVname
p366
Vrock
p367
sa(dp368
Vapp_id
p369
Vmain
p370
sVid
p371
Vai_PBTpj0kl
p372
sVvalue
p373
F0.95265279999999997
sVname
p374
Vpark
p375
sa(dp376
Vapp_id
p377
Vmain
p378
sVid
p379
Vai_wBCrHPDb
p380
sVvalue
p381
F0.95137453000000005
sVname
p382
Vleaf
p383
sa(dp384
Vapp_id
p385
Vmain
p386
sVid
p387
Vai_p3nHbf9p
p388
sVvalue
p389
F0.94809705
sVname
p390
Vwaterfall
p391
sa(dp392
Vapp_id
p393
Vmain
p394
sVid
p395
Vai_PfZ8fr3K
p396
sVvalue
p397
F0.93522830000000001
sVname
p398
Vcreek
p399
sa(dp400
Vapp_id
p401
Vmain
p402
sVid
p403
Vai_n9vjC1jB
p404
sVvalue
p405
F0.91675894999999996
sVname
p406
Vlight
p407
sa(dp408
Vapp_id
p409
Vmain
p410
sVid
p411
Vai_786Zr311
p412
sVvalue
p413
F0.91339767000000005
sVname
p414
Vno person
p415
sa(dp416
Vapp_id
p417
Vmain
p418
sVid
p419
Vai_0HffL2Dp
p420
sVvalue
p421
F0.91308999999999996
sVname
p422
Venvironment
p423
sa(dp424
Vapp_id
p425
Vmain
p426
sVid
p427
Vai_VJXZtfth
p428
sVvalue
p429
F0.90765859999999998
sVname
p430
Vmountain
p431
sa(dp432
Vapp_id
p433
Vmain
p434
sVid
p435
Vai_vz98nDK9
p436
sVvalue
p437
F0.89423512999999999
sVname
p438
Vbeautiful
p439
sa(dp440
Vapp_id
p441
Vmain
p442
sVid
p443
Vai_3bq0NQBs
p444
sVvalue
p445
F0.88672550000000006
sVname
p446
Vflow
p447
sassVid
p448
V4111e43e4ba74836b45dc1ca9169546a
p449
sass.