ccopy_reg
_reconstructor
p1
(crequests.models
Response
p2
c__builtin__
object
p3
NtRp4
(dp5
S'cookies'
p6
g1
(crequests.cookies
RequestsCookieJar
p7
g3
NtRp8
(dp9
S'_now'
p10
I1532664080
sS'_policy'
p11
(icookielib
DefaultCookiePolicy
p12
(dp13
S'strict_rfc2965_unverifiable'
p14
I01
sS'strict_ns_domain'
p15
I0
sS'_allowed_domains'
p16
NsS'rfc2109_as_netscape'
p17
NsS'rfc2965'
p18
I00
sS'strict_domain'
p19
I00
sg10
I1532664080
sS'strict_ns_set_path'
p20
I00
sS'strict_ns_unverifiable'
p21
I00
sS'strict_ns_set_initial_dollar'
p22
I00
sS'hide_cookie2'
p23
I00
sS'_blocked_domains'
p24
(tsS'netscape'
p25
I01
sbsS'_cookies'
p26
(dp27
sbsS'_content'
p28
S'{"photos":{"page":1,"pages":1077,"perpage":250,"total":"269036","photo":[{"id":"34971791601","owner":"53174574@N08","secret":"d0bbed548b","server":"4237","farm":5,"title":"The fight of supremacy","ispublic":1,"isfriend":0,"isfamily":0},{"id":"13182876103","owner":"27248374@N04","secret":"f76ba1f8fd","server":"3742","farm":4,"title":"Anchorage Alaska New Snow","ispublic":1,"isfriend":0,"isfamily":0},{"id":"13179192043","owner":"27248374@N04","secret":"f52412d407","server":"2077","farm":3,"title":"New Snow Anchorage Alaska","ispublic":1,"isfriend":0,"isfamily":0},{"id":"10739964384","owner":"27248374@N04","secret":"1aec6081f4","server":"7404","farm":8,"title":"Alaska Anchorage Moon Over Chugach Mountains","ispublic":1,"isfriend":0,"isfamily":0},{"id":"8249805979","owner":"27248374@N04","secret":"8fabc0f834","server":"8480","farm":9,"title":"Dowtown Anchorage And Bootleggers Cove As Photographed From Airport Park On A December Evening","ispublic":1,"isfriend":0,"isfamily":0},{"id":"3454932555","owner":"31305388@N07","secret":"0e9db8a4d5","server":"3411","farm":4,"title":"Evening Showers","ispublic":1,"isfriend":0,"isfamily":0},{"id":"39072093982","owner":"65545813@N05","secret":"f8182c0d88","server":"4690","farm":5,"title":"The Last Scrap","ispublic":1,"isfriend":0,"isfamily":0},{"id":"29242174396","owner":"65545813@N05","secret":"d9a282b7ef","server":"8533","farm":9,"title":"Bald Eagle on the Wing","ispublic":1,"isfriend":0,"isfamily":0},{"id":"25710216560","owner":"9939547@N08","secret":"aa45f1b696","server":"1642","farm":2,"title":"016_20","ispublic":1,"isfriend":0,"isfamily":0},{"id":"24380622951","owner":"65545813@N05","secret":"7fdb2e29fa","server":"1646","farm":2,"title":"Illiamna Bear","ispublic":1,"isfriend":0,"isfamily":0},{"id":"19504207586","owner":"9939547@N08","secret":"c267660776","server":"407","farm":1,"title":"009_36","ispublic":1,"isfriend":0,"isfamily":0},{"id":"15803360223","owner":"50830796@N04","secret":"0995f60d4d","server":"7418","farm":8,"title":"Morning star - (Explored)","ispublic":1,"isfriend":0,"isfamily":0},{"id":"14921949000","owner":"27248374@N04","secret":"dc748e8993","server":"3877","farm":4,"title":"Williams Reindeer Farm Palmer Alaska","ispublic":1,"isfriend":0,"isfamily":0},{"id":"14397896263","owner":"60917267@N04","secret":"414d714f5e","server":"2912","farm":3,"title":"Rainbow Aurora","ispublic":1,"isfriend":0,"isfamily":0},{"id":"9506172561","owner":"22918294@N04","secret":"26849b2902","server":"5347","farm":6,"title":"Alaska.","ispublic":1,"isfriend":0,"isfamily":0},{"id":"9019319055","owner":"27248374@N04","secret":"40e0594e33","server":"3741","farm":4,"title":"Alaska Cook Inlet","ispublic":1,"isfriend":0,"isfamily":0},{"id":"8371008286","owner":"45389964@N06","secret":"33b7b32717","server":"8375","farm":9,"title":"Bald Eagle","ispublic":1,"isfriend":0,"isfamily":0},{"id":"8333977404","owner":"74501611@N00","secret":"d7f1c09404","server":"8357","farm":9,"title":"And so the New Year arrives!  Eagle landing at Chilkat Preserve 6168","ispublic":1,"isfriend":0,"isfamily":0},{"id":"7820362284","owner":"28731994@N05","secret":"c144ba7316","server":"8436","farm":9,"title":"Midnight Winds","ispublic":1,"isfriend":0,"isfamily":0},{"id":"6687252097","owner":"50830796@N04","secret":"3541f290c4","server":"7008","farm":8,"title":"Diamonds in the snow . . .","ispublic":1,"isfriend":0,"isfamily":0},{"id":"3870852998","owner":"34592799@N02","secret":"9f993d76ce","server":"3485","farm":4,"title":"Alaskan Railroad","ispublic":1,"isfriend":0,"isfamily":0},{"id":"41811732990","owner":"91300281@N05","secret":"1af13b3f2e","server":"940","farm":1,"title":"sunrise swim","ispublic":1,"isfriend":0,"isfamily":0},{"id":"43619026391","owner":"122274109@N03","secret":"2a3f4b9b19","server":"860","farm":1,"title":"Tagish Lake, Yukon Territory, Canada","ispublic":1,"isfriend":0,"isfamily":0},{"id":"41808710830","owner":"73089689@N00","secret":"7a77efcaaf","server":"848","farm":1,"title":"Alaskan Stone","ispublic":1,"isfriend":0,"isfamily":0},{"id":"41808710280","owner":"73089689@N00","secret":"0d0f08c454","server":"918","farm":1,"title":"Riley Creek Viaduct","ispublic":1,"isfriend":0,"isfamily":0},{"id":"42894962254","owner":"22016744@N06","secret":"7fffa2acca","server":"929","farm":1,"title":"Alaska Sunset","ispublic":1,"isfriend":0,"isfamily":0},{"id":"41794621370","owner":"50830796@N04","secret":"8ba6382615","server":"833","farm":1,"title":"Chilkoot Lake - Alaska","ispublic":1,"isfriend":0,"isfamily":0},{"id":"29703742278","owner":"31065672@N03","secret":"429c0cfa2a","server":"836","farm":1,"title":"DSC06707","ispublic":1,"isfriend":0,"isfamily":0},{"id":"42658026095","owner":"145328325@N08","secret":"afd7b63bcd","server":"941","farm":1,"title":"Red trawler at anchor. Galway.","ispublic":1,"isfriend":0,"isfamily":0},{"id":"29667156558","owner":"31065672@N03","secret":"04a5d8b031","server":"936","farm":1,"title":"DSC03527","ispublic":1,"isfriend":0,"isfamily":0},{"id":"42632873375","owner":"45911888@N02","secret":"dd3e006dd5","server":"862","farm":1,"title":"Night Shine","ispublic":1,"isfriend":0,"isfamily":0},{"id":"43536443151","owner":"69805020@N08","secret":"e3fbfce89c","server":"847","farm":1,"title":"Rock Sandpiper","ispublic":1,"isfriend":0,"isfamily":0},{"id":"43536440841","owner":"69805020@N08","secret":"2e310b78b1","server":"1809","farm":2,"title":"Lapland Longspur","ispublic":1,"isfriend":0,"isfamily":0},{"id":"43488604132","owner":"69805020@N08","secret":"639caa5ea0","server":"1763","farm":2,"title":"Snow Bunting","ispublic":1,"isfriend":0,"isfamily":0},{"id":"42624634255","owner":"22016744@N06","secret":"22e1458963","server":"839","farm":1,"title":"Little Bo Peep","ispublic":1,"isfriend":0,"isfamily":0},{"id":"42792165434","owner":"22016744@N06","secret":"0a370c2a99","server":"1785","farm":2,"title":"Orca","ispublic":1,"isfriend":0,"isfamily":0},{"id":"28601739227","owner":"130819719@N05","secret":"95c6eeac22","server":"837","farm":1,"title":"Arctic Tern (juvenile)","ispublic":1,"isfriend":0,"isfamily":0},{"id":"43487387431","owner":"45911888@N02","secret":"1592cf3936","server":"1810","farm":2,"title":"Buoys night out","ispublic":1,"isfriend":0,"isfamily":0},{"id":"29597826978","owner":"130819719@N05","secret":"f09b5a4676","server":"918","farm":1,"title":"Red-necked Grebe (breeding plumage)","ispublic":1,"isfriend":0,"isfamily":0},{"id":"43446678321","owner":"130819719@N05","secret":"9e861e6e14","server":"1761","farm":2,"title":"Black-billed Magpie","ispublic":1,"isfriend":0,"isfamily":0},{"id":"29562955238","owner":"50830796@N04","secret":"38f63a31a7","server":"837","farm":1,"title":"Driftwood and Lupine (Explored)","ispublic":1,"isfriend":0,"isfamily":0},{"id":"42707047674","owner":"130819719@N05","secret":"d2a942de0c","server":"924","farm":1,"title":"Orange-crowned Warbler","ispublic":1,"isfriend":0,"isfamily":0},{"id":"29538153558","owner":"86423215@N00","secret":"b02f88d48f","server":"1789","farm":2,"title":"Salmon Fishing With Our Black Bear Guide","ispublic":1,"isfriend":0,"isfamily":0},{"id":"43403970371","owner":"130819719@N05","secret":"a858d77d46","server":"1804","farm":2,"title":"Tree Swallow (juvenile)","ispublic":1,"isfriend":0,"isfamily":0},{"id":"42687579284","owner":"130819719@N05","secret":"66fbb5a8d5","server":"1790","farm":2,"title":"Tree Swallow","ispublic":1,"isfriend":0,"isfamily":0},{"id":"41588007400","owner":"126973368@N06","secret":"55fd4203d8","server":"1764","farm":2,"title":"Opening Day","ispublic":1,"isfriend":0,"isfamily":0},{"id":"28518432137","owner":"22016744@N06","secret":"146f638cae","server":"845","farm":1,"title":"LeConte Glacier Iceberg","ispublic":1,"isfriend":0,"isfamily":0},{"id":"43335174002","owner":"130819719@N05","secret":"38b9f19cfe","server":"922","farm":1,"title":"Black-capped Chickadee","ispublic":1,"isfriend":0,"isfamily":0},{"id":"29487301878","owner":"27248374@N04","secret":"2b65fa7dab","server":"1830","farm":2,"title":"Alaska Anchorage","ispublic":1,"isfriend":0,"isfamily":0},{"id":"42625242294","owner":"130819719@N05","secret":"002421eb3b","server":"835","farm":1,"title":"Greater Yellowlegs (breeding plumage)","ispublic":1,"isfriend":0,"isfamily":0},{"id":"29423250168","owner":"63422257@N08","secret":"3b4b7500bf","server":"924","farm":1,"title":"477th Fighter Group F-22A Raptor \\"Spriit of Tuskegee\\" on Static","ispublic":1,"isfriend":0,"isfamily":0},{"id":"42382370085","owner":"153465120@N07","secret":"2d44036eb7","server":"922","farm":1,"title":"fascia hanging basket","ispublic":1,"isfriend":0,"isfamily":0},{"id":"42354396165","owner":"153465120@N07","secret":"7473aefcf3","server":"1782","farm":2,"title":"Mt. Denali from the air","ispublic":1,"isfriend":0,"isfamily":0},{"id":"43256614411","owner":"130819719@N05","secret":"8a007790c2","server":"1830","farm":2,"title":"Wilson\'s Warbler (m)","ispublic":1,"isfriend":0,"isfamily":0},{"id":"43205837672","owner":"12039065@N00","secret":"e152a713b9","server":"1824","farm":2,"title":"Portland Canal","ispublic":1,"isfriend":0,"isfamily":0},{"id":"43247370851","owner":"63422257@N08","secret":"cd2135aaab","server":"916","farm":1,"title":"AFTERBURNING ALASKAN AGGRESSION","ispublic":1,"isfriend":0,"isfamily":0},{"id":"28350650537","owner":"77575637@N02","secret":"0cbe53b322","server":"913","farm":1,"title":"Little Su","ispublic":1,"isfriend":0,"isfamily":0},{"id":"42310728675","owner":"14018394@N03","secret":"dac811d6a8","server":"1763","farm":2,"title":"Farewell","ispublic":1,"isfriend":0,"isfamily":0},{"id":"29328833978","owner":"126251698@N03","secret":"186d39d9ba","server":"1761","farm":2,"title":"City of Anchorage, Alaska, USA","ispublic":1,"isfriend":0,"isfamily":0},{"id":"29328796818","owner":"126251698@N03","secret":"9cde96bf6d","server":"1782","farm":2,"title":"City of Anchorage, Alaska, USA","ispublic":1,"isfriend":0,"isfamily":0},{"id":"41370580500","owner":"77575637@N02","secret":"d013124365","server":"1826","farm":2,"title":"Follow Your Heart","ispublic":1,"isfriend":0,"isfamily":0},{"id":"29287065958","owner":"23032926@N05","secret":"0629223dca","server":"1828","farm":2,"title":"N30CC Alaska Magnum Beaver \\"Fly Denali\\"","ispublic":1,"isfriend":0,"isfamily":0},{"id":"28249818387","owner":"52399599@N03","secret":"107b180ae4","server":"1807","farm":2,"title":"20180630-03BWC","ispublic":1,"isfriend":0,"isfamily":0},{"id":"43100731881","owner":"50971601@N07","secret":"501474fd0e","server":"838","farm":1,"title":"King Eider - Explored","ispublic":1,"isfriend":0,"isfamily":0},{"id":"43100723581","owner":"50971601@N07","secret":"3491b6cfc5","server":"1802","farm":2,"title":"Buff-breasted Sandpiper - Explored","ispublic":1,"isfriend":0,"isfamily":0},{"id":"42313420624","owner":"50830796@N04","secret":"103ccdf183","server":"1808","farm":2,"title":"Bunny on summer vacation . .","ispublic":1,"isfriend":0,"isfamily":0},{"id":"29128935178","owner":"14018394@N03","secret":"f756244079","server":"1827","farm":2,"title":"A Teaching Moment","ispublic":1,"isfriend":0,"isfamily":0},{"id":"42917618792","owner":"14018394@N03","secret":"00674acdab","server":"1770","farm":2,"title":"That\'s Too Close!","ispublic":1,"isfriend":0,"isfamily":0},{"id":"42037362165","owner":"14018394@N03","secret":"f7da064a0e","server":"1825","farm":2,"title":"The Stare Down","ispublic":1,"isfriend":0,"isfamily":0},{"id":"42216557404","owner":"152489455@N07","secret":"d9f5b42fe4","server":"884","farm":1,"title":"Gyrfalcon (Falco rusticolus)","ispublic":1,"isfriend":0,"isfamily":0},{"id":"42179636964","owner":"14018394@N03","secret":"78cbcc7a20","server":"899","farm":1,"title":"Ahhhhhhhh....","ispublic":1,"isfriend":0,"isfamily":0},{"id":"42875944361","owner":"14018394@N03","secret":"c29378ba27","server":"1801","farm":2,"title":"Grizzly Clam Hunt","ispublic":1,"isfriend":0,"isfamily":0},{"id":"27983381217","owner":"10857883@N05","secret":"d3d15038b3","server":"1757","farm":2,"title":"Alaska- Juneau-5","ispublic":1,"isfriend":0,"isfamily":0},{"id":"42128736914","owner":"22170893@N06","secret":"ccfeee0a4c","server":"1723","farm":2,"title":"Wonder Lake...","ispublic":1,"isfriend":0,"isfamily":0},{"id":"27971025227","owner":"52399599@N03","secret":"55a7c64c01","server":"895","farm":1,"title":"Trains","ispublic":1,"isfriend":0,"isfamily":0},{"id":"42839865331","owner":"77575637@N02","secret":"d92bbf6ab1","server":"1748","farm":2,"title":"Dancing Light","ispublic":1,"isfriend":0,"isfamily":0},{"id":"42069467084","owner":"26223409@N08","secret":"99d4631d35","server":"892","farm":1,"title":"N189SY","ispublic":1,"isfriend":0,"isfamily":0},{"id":"42730007961","owner":"10857883@N05","secret":"83f9f0c0af","server":"1722","farm":2,"title":"Alaska- Glacier Bay-12a","ispublic":1,"isfriend":0,"isfamily":0},{"id":"42730007381","owner":"10857883@N05","secret":"f2724a5199","server":"1756","farm":2,"title":"Alaska- Glacier Bay-14","ispublic":1,"isfriend":0,"isfamily":0},{"id":"42730006531","owner":"10857883@N05","secret":"f19b5e8fca","server":"1744","farm":2,"title":"Alaska- Glacier Bay-47","ispublic":1,"isfriend":0,"isfamily":0},{"id":"41824042865","owner":"73369431@N07","secret":"ba532367e5","server":"1744","farm":2,"title":"Mount Stoller White","ispublic":1,"isfriend":0,"isfamily":0},{"id":"40911624390","owner":"24257706@N07","secret":"38cc2e29d1","server":"1729","farm":2,"title":"My sledge is ready to leave Base Camp (7200ft \\/ 2200m) (in Explore 2018-06-10, Ranked #218)","ispublic":1,"isfriend":0,"isfamily":0},{"id":"41979985514","owner":"76982468@N05","secret":"d5df13aa27","server":"1742","farm":2,"title":"Glacier Bay","ispublic":1,"isfriend":0,"isfamily":0},{"id":"28822394628","owner":"77575637@N02","secret":"ba7e3d4491","server":"1733","farm":2,"title":"Moose Pass","ispublic":1,"isfriend":0,"isfamily":0},{"id":"41970344694","owner":"18215054@N06","secret":"c0f0c47a6f","server":"1746","farm":2,"title":"Spotted in the sea fret","ispublic":1,"isfriend":0,"isfamily":0},{"id":"27819224177","owner":"76982468@N05","secret":"f2be6f2945","server":"1721","farm":2,"title":"Somewhere in Juneau","ispublic":1,"isfriend":0,"isfamily":0},{"id":"27804041177","owner":"9939547@N08","secret":"de6751972d","server":"1733","farm":2,"title":"P1200026","ispublic":1,"isfriend":0,"isfamily":0},{"id":"28768969678","owner":"9939547@N08","secret":"89673b30d3","server":"1758","farm":2,"title":"P1190867","ispublic":1,"isfriend":0,"isfamily":0},{"id":"28685137628","owner":"9939547@N08","secret":"4f025d9091","server":"1739","farm":2,"title":"P1160212","ispublic":1,"isfriend":0,"isfamily":0},{"id":"42527427431","owner":"77575637@N02","secret":"5013c88080","server":"1741","farm":2,"title":"Nature\'s Palette","ispublic":1,"isfriend":0,"isfamily":0},{"id":"41609005395","owner":"7912916@N02","secret":"06f5e611a8","server":"1754","farm":2,"title":"Splashing","ispublic":1,"isfriend":0,"isfamily":0},{"id":"42447024632","owner":"126454047@N03","secret":"54ff3855d9","server":"877","farm":1,"title":"Alaska Railroad","ispublic":1,"isfriend":0,"isfamily":0},{"id":"28623737908","owner":"9939547@N08","secret":"99ccdc2ec2","server":"1730","farm":2,"title":"P1150370","ispublic":1,"isfriend":0,"isfamily":0},{"id":"28560873448","owner":"10857883@N05","secret":"d57e85d8ee","server":"1758","farm":2,"title":"Alaska- Juneau-3","ispublic":1,"isfriend":0,"isfamily":0},{"id":"41700323774","owner":"77575637@N02","secret":"ea4b83389a","server":"1727","farm":2,"title":"Tern Lake","ispublic":1,"isfriend":0,"isfamily":0},{"id":"27540264687","owner":"52399599@N03","secret":"f72ee42513","server":"1737","farm":2,"title":"The Bridge (Explored)","ispublic":1,"isfriend":0,"isfamily":0},{"id":"41501370165","owner":"10857883@N05","secret":"67e3026cef","server":"1757","farm":2,"title":"Alaska- Glacier Bay-6","ispublic":1,"isfriend":0,"isfamily":0},{"id":"42353886362","owner":"10857883@N05","secret":"8495d185fe","server":"1721","farm":2,"title":"Alaska- Glacier Bay-17","ispublic":1,"isfriend":0,"isfamily":0},{"id":"40595766990","owner":"10857883@N05","secret":"3a64292604","server":"1730","farm":2,"title":"Alaska- Glacier Bay-44","ispublic":1,"isfriend":0,"isfamily":0},{"id":"27533263947","owner":"27248374@N04","secret":"efabafa9f0","server":"1742","farm":2,"title":"Fishhook Alaska","ispublic":1,"isfriend":0,"isfamily":0},{"id":"27525700387","owner":"52399599@N03","secret":"87cea64d94","server":"1736","farm":2,"title":"The Urban Forest","ispublic":1,"isfriend":0,"isfamily":0},{"id":"27479036777","owner":"126973368@N06","secret":"a3ab5a257b","server":"874","farm":1,"title":"Portage Tunnel","ispublic":1,"isfriend":0,"isfamily":0},{"id":"42305066961","owner":"24206407@N07","secret":"73d4a98d11","server":"957","farm":1,"title":"The High One","ispublic":1,"isfriend":0,"isfamily":0},{"id":"42214299432","owner":"48922763@N04","secret":"3a50b98007","server":"946","farm":1,"title":"Three Bears Alaska Gas Station - Seward, Alaska","ispublic":1,"isfriend":0,"isfamily":0},{"id":"40364697910","owner":"53017973@N07","secret":"8ca056dfed","server":"947","farm":1,"title":"Spring Thaw","ispublic":1,"isfriend":0,"isfamily":0},{"id":"27177607847","owner":"126973368@N06","secret":"86481e8b7d","server":"945","farm":1,"title":"Winter Blues","ispublic":1,"isfriend":0,"isfamily":0},{"id":"27177607527","owner":"126973368@N06","secret":"41102186fa","server":"958","farm":1,"title":"Single-Doubles","ispublic":1,"isfriend":0,"isfamily":0},{"id":"41319100574","owner":"79691705@N05","secret":"6717c9f21a","server":"969","farm":1,"title":"Alaska Airlines | Boeing 737-900ER | N248AK | 100 years Boeing livery | Las Vegas McCarran","ispublic":1,"isfriend":0,"isfamily":0},{"id":"41318508684","owner":"63352867@N02","secret":"063f5cf132","server":"975","farm":1,"title":"Vela at anchor off the coast of St Lucia","ispublic":1,"isfriend":0,"isfamily":0},{"id":"40220428550","owner":"160067656@N06","secret":"f47c1ff258","server":"949","farm":1,"title":"White-crowned sparrow","ispublic":1,"isfriend":0,"isfamily":0},{"id":"41301651264","owner":"160067656@N06","secret":"3e212c89f8","server":"952","farm":1,"title":"Notch Ear","ispublic":1,"isfriend":0,"isfamily":0},{"id":"27118063817","owner":"50446746@N02","secret":"b8d728d42f","server":"959","farm":1,"title":"Somewhere Along the Inner Passage","ispublic":1,"isfriend":0,"isfamily":0},{"id":"27117867467","owner":"126973368@N06","secret":"a409c53526","server":"912","farm":1,"title":"Beautiful Brookman","ispublic":1,"isfriend":0,"isfamily":0},{"id":"27114440987","owner":"160067656@N06","secret":"b942c327f1","server":"962","farm":1,"title":"Spring Song","ispublic":1,"isfriend":0,"isfamily":0},{"id":"41056504575","owner":"10857883@N05","secret":"ee5411200b","server":"832","farm":1,"title":"Alaska- Glacier Bay-43","ispublic":1,"isfriend":0,"isfamily":0},{"id":"41042650755","owner":"160067656@N06","secret":"805188b9e7","server":"827","farm":1,"title":"Jagged","ispublic":1,"isfriend":0,"isfamily":0},{"id":"27027950527","owner":"38998307@N05","secret":"f79b6937a0","server":"944","farm":1,"title":"N474AS | Boeing 737-990ER\\/W | Alaska Airlines","ispublic":1,"isfriend":0,"isfamily":0},{"id":"41097139634","owner":"41535816@N04","secret":"2d5b8f7d5d","server":"964","farm":1,"title":"Denali Park","ispublic":1,"isfriend":0,"isfamily":0},{"id":"39931004690","owner":"10857883@N05","secret":"db34991039","server":"966","farm":1,"title":"Alaska- Glacier Bay-30","ispublic":1,"isfriend":0,"isfamily":0},{"id":"40991626584","owner":"103533263@N07","secret":"a1ccf41419","server":"945","farm":1,"title":"Federal Police ~ Water","ispublic":1,"isfriend":0,"isfamily":0},{"id":"41625028561","owner":"10857883@N05","secret":"c0bcb1c701","server":"931","farm":1,"title":"Alaska- Glacier Bay-42","ispublic":1,"isfriend":0,"isfamily":0},{"id":"41566472292","owner":"28430977@N07","secret":"58f32de111","server":"835","farm":1,"title":"Traveling On Glacier Bay - Alaska","ispublic":1,"isfriend":0,"isfamily":0},{"id":"40710335115","owner":"38152366@N00","secret":"3b7a704b85","server":"870","farm":1,"title":"casting a veil","ispublic":1,"isfriend":0,"isfamily":0},{"id":"39779831040","owner":"27248374@N04","secret":"780937f391","server":"882","farm":1,"title":"Alaska Anchorage","ispublic":1,"isfriend":0,"isfamily":0},{"id":"39758512860","owner":"27248374@N04","secret":"43004523cc","server":"906","farm":1,"title":"Alaska Anchorage","ispublic":1,"isfriend":0,"isfamily":0},{"id":"39741143570","owner":"127137501@N08","secret":"92481fd40b","server":"812","farm":1,"title":"Mexico Tuxpan _  sunset - 2018-04-17-d810","ispublic":1,"isfriend":0,"isfamily":0},{"id":"41508758222","owner":"127137501@N08","secret":"ec00a09026","server":"931","farm":1,"title":"Turmoil  in Mexico Tuxpan _   2018-04-18-d810","ispublic":1,"isfriend":0,"isfamily":0},{"id":"39723455840","owner":"23249325@N08","secret":"bc3bc43bcd","server":"902","farm":1,"title":"Alaska Airlines - Phoenix Arizona Sky Harbor Airport - 5109","ispublic":1,"isfriend":0,"isfamily":0},{"id":"27635185538","owner":"27248374@N04","secret":"c523e284d7","server":"931","farm":1,"title":"Alaska Anchorage","ispublic":1,"isfriend":0,"isfamily":0},{"id":"26571869897","owner":"65545813@N05","secret":"ebc700e3b5","server":"883","farm":1,"title":"The Ultimate Land Predator","ispublic":1,"isfriend":0,"isfamily":0},{"id":"41442909381","owner":"65545813@N05","secret":"30273ac789","server":"865","farm":1,"title":"Sideways Glance from Big Male Polar Bear","ispublic":1,"isfriend":0,"isfamily":0},{"id":"40544292585","owner":"28430977@N07","secret":"216027a4e1","server":"803","farm":1,"title":"Clouds Over Glacier Bay","ispublic":1,"isfriend":0,"isfamily":0},{"id":"40503343935","owner":"126973368@N06","secret":"f25b72ddbf","server":"788","farm":1,"title":"Approaching Indian","ispublic":1,"isfriend":0,"isfamily":0},{"id":"41398226151","owner":"28430977@N07","secret":"ebe94979a6","server":"863","farm":1,"title":"The Beauty of Alaska","ispublic":1,"isfriend":0,"isfamily":0},{"id":"40662561434","owner":"22931801@N03","secret":"179f5e23fa","server":"783","farm":1,"title":"IMGP2653","ispublic":1,"isfriend":0,"isfamily":0},{"id":"41287534521","owner":"59306007@N08","secret":"3372f4cd91","server":"874","farm":1,"title":"Fatbiking Knik Glacier, Alaska","ispublic":1,"isfriend":0,"isfamily":0},{"id":"26401290267","owner":"128946618@N05","secret":"0d942b86c0","server":"789","farm":1,"title":"The Path to The Skies","ispublic":1,"isfriend":0,"isfamily":0},{"id":"27386864048","owner":"22931801@N03","secret":"d4079d0bd7","server":"814","farm":1,"title":"Surfer\'s Beach","ispublic":1,"isfriend":0,"isfamily":0},{"id":"27381464798","owner":"45389964@N06","secret":"157d4e082b","server":"788","farm":1,"title":"Malamute","ispublic":1,"isfriend":0,"isfamily":0},{"id":"39440058620","owner":"128946618@N05","secret":"500758e840","server":"802","farm":1,"title":"white Mountain","ispublic":1,"isfriend":0,"isfamily":0},{"id":"27366073558","owner":"50830796@N04","secret":"63eab303ef","server":"813","farm":1,"title":"Old Gold Field Generator","ispublic":1,"isfriend":0,"isfamily":0},{"id":"39426994770","owner":"102769624@N02","secret":"fb3c5d7e18","server":"822","farm":1,"title":"Goldstream Husky Lodge","ispublic":1,"isfriend":0,"isfamily":0},{"id":"41223617571","owner":"128946618@N05","secret":"0ccced9a9d","server":"794","farm":1,"title":"The Mountain Pass","ispublic":1,"isfriend":0,"isfamily":0},{"id":"26318564137","owner":"128946618@N05","secret":"fa78b84d01","server":"817","farm":1,"title":"White Mountain  Pass","ispublic":1,"isfriend":0,"isfamily":0},{"id":"26312400097","owner":"150948125@N03","secret":"64d2df0085","server":"866","farm":1,"title":"Travel in North America","ispublic":1,"isfriend":0,"isfamily":0},{"id":"26298982897","owner":"27248374@N04","secret":"ac439d4d90","server":"900","farm":1,"title":"North Face Alyeska Resort Anchorage Alaska","ispublic":1,"isfriend":0,"isfamily":0},{"id":"41134375661","owner":"10857883@N05","secret":"3b982c9dcd","server":"866","farm":1,"title":"Alaska- Ketchikan-14","ispublic":1,"isfriend":0,"isfamily":0},{"id":"40082882175","owner":"50830796@N04","secret":"34ee9a414a","server":"789","farm":1,"title":"Mentasta Lake, Alaska (Explored)","ispublic":1,"isfriend":0,"isfamily":0},{"id":"40931519172","owner":"10857883@N05","secret":"abcf60a972","server":"805","farm":1,"title":"Alaska- Glacier Bay-33","ispublic":1,"isfriend":0,"isfamily":0},{"id":"40958798281","owner":"33595630@N06","secret":"d2653b48d5","server":"795","farm":1,"title":"Getting Ready","ispublic":1,"isfriend":0,"isfamily":0},{"id":"26004326367","owner":"10857883@N05","secret":"f8ffa2d07c","server":"4783","farm":5,"title":"Alaska- Glacier Bay-26","ispublic":1,"isfriend":0,"isfamily":0},{"id":"40876288541","owner":"10857883@N05","secret":"c716ed5510","server":"810","farm":1,"title":"Alaska- Glacier Bay-45","ispublic":1,"isfriend":0,"isfamily":0},{"id":"39953423705","owner":"38998307@N05","secret":"94c205b3f9","server":"790","farm":1,"title":"N924VA | Airbus A321-253N | Alaska Airlines (special \\"San Francisco Giants\\" livery)","ispublic":1,"isfriend":0,"isfamily":0},{"id":"40782150112","owner":"25171569@N02","secret":"2f16684273","server":"4782","farm":5,"title":"2887e2 beautiful blue iris","ispublic":1,"isfriend":0,"isfamily":0},{"id":"40101975914","owner":"82461392@N00","secret":"9b286d3324","server":"783","farm":1,"title":"Airbus twofer at SFO","ispublic":1,"isfriend":0,"isfamily":0},{"id":"39910084455","owner":"25171569@N02","secret":"4e1937f8a9","server":"4794","farm":5,"title":"2217e2x reflections of Alaska","ispublic":1,"isfriend":0,"isfamily":0},{"id":"26934199148","owner":"10857883@N05","secret":"36b59b0052","server":"4774","farm":5,"title":"Alaska- Juneau-1","ispublic":1,"isfriend":0,"isfamily":0},{"id":"25932779067","owner":"10857883@N05","secret":"261f493704","server":"4771","farm":5,"title":"Alaska- Juneau-4","ispublic":1,"isfriend":0,"isfamily":0},{"id":"25886331977","owner":"50830796@N04","secret":"1e9d9eca56","server":"4785","farm":5,"title":"I wanna go home!","ispublic":1,"isfriend":0,"isfamily":0},{"id":"40708288342","owner":"10857883@N05","secret":"d39b25d518","server":"4780","farm":5,"title":"Alaska- Glacier Bay-3","ispublic":1,"isfriend":0,"isfamily":0},{"id":"3022831413","owner":"27248374@N04","secret":"a7820f4354","server":"3037","farm":4,"title":"Alaska Mount Susitna - Sleeping Lady 2008","ispublic":1,"isfriend":0,"isfamily":0},{"id":"1520167165","owner":"47901510@N00","secret":"c9987ea5eb","server":"2268","farm":3,"title":"Goodbye, sunshine!","ispublic":1,"isfriend":0,"isfamily":0},{"id":"65877009","owner":"54252144@N00","secret":"bcd7af9500","server":"31","farm":1,"title":"Turnagain Arm","ispublic":1,"isfriend":0,"isfamily":0},{"id":"38798627620","owner":"54909153@N06","secret":"f3f490c089","server":"4702","farm":5,"title":"Above a Sea of Clouds","ispublic":1,"isfriend":0,"isfamily":0},{"id":"22944583159","owner":"13115397@N07","secret":"4c3469b5fd","server":"677","farm":1,"title":"AK-Caribou-Migration","ispublic":1,"isfriend":0,"isfamily":0},{"id":"20801298339","owner":"24457616@N06","secret":"366057dd47","server":"729","farm":1,"title":"(#19) Liquid Diamond Drops","ispublic":1,"isfriend":0,"isfamily":0},{"id":"19724164602","owner":"31813000@N04","secret":"2e748b70d7","server":"505","farm":1,"title":"Seward (Alaska, AK)","ispublic":1,"isfriend":0,"isfamily":0},{"id":"15775680468","owner":"54304937@N07","secret":"c27e7a57fa","server":"7501","farm":8,"title":"","ispublic":1,"isfriend":0,"isfamily":0},{"id":"15235727527","owner":"31911618@N07","secret":"4cde3675ea","server":"2945","farm":3,"title":"IMG_9462 (2)","ispublic":1,"isfriend":0,"isfamily":0},{"id":"15035570725","owner":"91300281@N05","secret":"712b1af841","server":"3835","farm":4,"title":"Morning fog","ispublic":1,"isfriend":0,"isfamily":0},{"id":"14738400931","owner":"27248374@N04","secret":"ae9c286923","server":"2936","farm":3,"title":"Summer Fishing Alaska (Explored)","ispublic":1,"isfriend":0,"isfamily":0},{"id":"14509101865","owner":"11376383@N00","secret":"7a9ef43d4e","server":"5562","farm":6,"title":"Mount Juneau","ispublic":1,"isfriend":0,"isfamily":0},{"id":"11860585996","owner":"27248374@N04","secret":"996a0ca522","server":"7352","farm":8,"title":"Alaska Cook Inlet Panorama","ispublic":1,"isfriend":0,"isfamily":0},{"id":"8659834132","owner":"19549556@N07","secret":"2da64068e8","server":"8113","farm":9,"title":"Fish Tacos - McCarran Int\'l Airport, NV  USA","ispublic":1,"isfriend":0,"isfamily":0},{"id":"8125052816","owner":"48639028@N08","secret":"c6765ea558","server":"8473","farm":9,"title":"Forest","ispublic":1,"isfriend":0,"isfamily":0},{"id":"6133362308","owner":"25925270@N04","secret":"7191762c16","server":"6207","farm":7,"title":"","ispublic":1,"isfriend":0,"isfamily":0},{"id":"3096932879","owner":"31305388@N07","secret":"7b16fe2927","server":"3121","farm":4,"title":"Through the looking Glass","ispublic":1,"isfriend":0,"isfamily":0},{"id":"2327365156","owner":"91688076@N00","secret":"15e23b095b","server":"3025","farm":4,"title":"As cores de Angra","ispublic":1,"isfriend":0,"isfamily":0},{"id":"42998209872","owner":"50830796@N04","secret":"2c026fcd28","server":"1803","farm":2,"title":"Fishing in Alaska","ispublic":1,"isfriend":0,"isfamily":0},{"id":"29080432038","owner":"14018394@N03","secret":"28cc6fa373","server":"1821","farm":2,"title":"Exit Glacier","ispublic":1,"isfriend":0,"isfamily":0},{"id":"28063594707","owner":"157839500@N04","secret":"06cb4b39dd","server":"1823","farm":2,"title":"Alaska Airlines B727-155C N530EJ","ispublic":1,"isfriend":0,"isfamily":0},{"id":"42744840802","owner":"10797169@N00","secret":"8125f79115","server":"1730","farm":2,"title":"Anchorage Alaska","ispublic":1,"isfriend":0,"isfamily":0},{"id":"42694888451","owner":"73369431@N07","secret":"680bd4cc3a","server":"1736","farm":2,"title":"Mendenhall Ice Caves","ispublic":1,"isfriend":0,"isfamily":0},{"id":"42619324011","owner":"9939547@N08","secret":"01ccb9d55a","server":"1748","farm":2,"title":"P1190255","ispublic":1,"isfriend":0,"isfamily":0},{"id":"42588246061","owner":"9939547@N08","secret":"2ac774251f","server":"1744","farm":2,"title":"P1200386","ispublic":1,"isfriend":0,"isfamily":0},{"id":"41619631805","owner":"7912916@N02","secret":"664c4c6569","server":"1746","farm":2,"title":"Kenai","ispublic":1,"isfriend":0,"isfamily":0},{"id":"40690845680","owner":"126454047@N03","secret":"b0d24eec73","server":"1737","farm":2,"title":"Yakutat Bay Sunset","ispublic":1,"isfriend":0,"isfamily":0},{"id":"42381330671","owner":"27248374@N04","secret":"e5e7e96bfc","server":"1754","farm":2,"title":"Little Susitna River Fishhook Alaska","ispublic":1,"isfriend":0,"isfamily":0},{"id":"27479037497","owner":"126973368@N06","secret":"fe1511b30c","server":"1754","farm":2,"title":"Two Out of Three Ain\'t Bad","ispublic":1,"isfriend":0,"isfamily":0},{"id":"40513365660","owner":"27248374@N04","secret":"d0cc3142f3","server":"969","farm":1,"title":"Alaska Mount McKinley","ispublic":1,"isfriend":0,"isfamily":0},{"id":"28371273658","owner":"126973368@N06","secret":"6ae335fd66","server":"944","farm":1,"title":"Portage Section","ispublic":1,"isfriend":0,"isfamily":0},{"id":"41518843694","owner":"48922763@N04","secret":"e132775915","server":"908","farm":1,"title":"Welcome to Alaska","ispublic":1,"isfriend":0,"isfamily":0},{"id":"42189278132","owner":"27248374@N04","secret":"d4e093671c","server":"904","farm":1,"title":"Alaska Fishhook Little Susina River","ispublic":1,"isfriend":0,"isfamily":0},{"id":"41297653115","owner":"27248374@N04","secret":"f8d9740345","server":"980","farm":1,"title":"Alaska Anchorage Taku Lake","ispublic":1,"isfriend":0,"isfamily":0},{"id":"41470449974","owner":"23032926@N05","secret":"0c60171b83","server":"965","farm":1,"title":"After the Fog at ANC","ispublic":1,"isfriend":0,"isfamily":0},{"id":"41444065214","owner":"27248374@N04","secret":"58d2716859","server":"969","farm":1,"title":"Alaska Anchorage","ispublic":1,"isfriend":0,"isfamily":0},{"id":"40257485370","owner":"27248374@N04","secret":"1967ff12cb","server":"959","farm":1,"title":"Alaska Portage Lake","ispublic":1,"isfriend":0,"isfamily":0},{"id":"27142691777","owner":"85701348@N07","secret":"a4a5c75652","server":"955","farm":1,"title":"Humpback whales feeding off Alaska, USA.","ispublic":1,"isfriend":0,"isfamily":0},{"id":"41916383762","owner":"27248374@N04","secret":"5581844307","server":"965","farm":1,"title":"Alaska Matanuska River","ispublic":1,"isfriend":0,"isfamily":0},{"id":"28020574098","owner":"27248374@N04","secret":"369155ec5d","server":"871","farm":1,"title":"Alyeska 2018","ispublic":1,"isfriend":0,"isfamily":0},{"id":"26987028087","owner":"27248374@N04","secret":"6faa0ae104","server":"871","farm":1,"title":"Alaska Cook Inlet Turnagain Arm","ispublic":1,"isfriend":0,"isfamily":0},{"id":"40002053970","owner":"27248374@N04","secret":"2224e1b6e5","server":"825","farm":1,"title":"Campbell Creek Anchorage Alaska","ispublic":1,"isfriend":0,"isfamily":0},{"id":"27919283898","owner":"27248374@N04","secret":"db0521c576","server":"824","farm":1,"title":"Campbell Creek Anchorage Alaska","ispublic":1,"isfriend":0,"isfamily":0},{"id":"41728880232","owner":"27248374@N04","secret":"345ce740d8","server":"830","farm":1,"title":"Alaska Anchorage","ispublic":1,"isfriend":0,"isfamily":0},{"id":"27873153908","owner":"27248374@N04","secret":"70e61496ba","server":"912","farm":1,"title":"Seward Alaska Exit Glacier","ispublic":1,"isfriend":0,"isfamily":0},{"id":"41557340172","owner":"27248374@N04","secret":"f9e194c26c","server":"888","farm":1,"title":"Alaska Alyeska Resort","ispublic":1,"isfriend":0,"isfamily":0},{"id":"39740754630","owner":"22931801@N03","secret":"d9c0e3aee0","server":"849","farm":1,"title":"Kind of Blue","ispublic":1,"isfriend":0,"isfamily":0},{"id":"41504618852","owner":"27248374@N04","secret":"c8a00ab431","server":"904","farm":1,"title":"Alaska Anchorage","ispublic":1,"isfriend":0,"isfamily":0},{"id":"39717326090","owner":"27248374@N04","secret":"a11cffd51d","server":"927","farm":1,"title":"Alaska Anchorage Campbell Creek Greenbelt","ispublic":1,"isfriend":0,"isfamily":0},{"id":"41465241082","owner":"27248374@N04","secret":"be0e0348e2","server":"889","farm":1,"title":"Alaska Anchorage Campbell Creek","ispublic":1,"isfriend":0,"isfamily":0},{"id":"40775313994","owner":"27248374@N04","secret":"b80473e87e","server":"872","farm":1,"title":"Alaska Anchorage Alaska Anchorage Campbell Creek Trail","ispublic":1,"isfriend":0,"isfamily":0},{"id":"39678978130","owner":"27248374@N04","secret":"ee7b552522","server":"899","farm":1,"title":"Alaska Anchorage Campbell Creek Trail","ispublic":1,"isfriend":0,"isfamily":0},{"id":"40771180204","owner":"27248374@N04","secret":"af52596304","server":"889","farm":1,"title":"Alaska Anchorage Campbell Creek Greenbelt Park","ispublic":1,"isfriend":0,"isfamily":0},{"id":"40743626984","owner":"27248374@N04","secret":"03dec2aa1c","server":"810","farm":1,"title":"Alyeska Resort Anchorage Alaska","ispublic":1,"isfriend":0,"isfamily":0},{"id":"39641372200","owner":"42964440@N08","secret":"bcbee80343","server":"803","farm":1,"title":"Alaskan Wilderness","ispublic":1,"isfriend":0,"isfamily":0},{"id":"27568732458","owner":"27248374@N04","secret":"72e82806d2","server":"787","farm":1,"title":"Seward Highway Alaska","ispublic":1,"isfriend":0,"isfamily":0},{"id":"26545646767","owner":"27248374@N04","secret":"4ca235c85b","server":"894","farm":1,"title":"Alaska Anchorage","ispublic":1,"isfriend":0,"isfamily":0},{"id":"40484931665","owner":"27248374@N04","secret":"8f11c281cc","server":"870","farm":1,"title":"Alaska Anchorage","ispublic":1,"isfriend":0,"isfamily":0},{"id":"40658266204","owner":"27248374@N04","secret":"c8b8301985","server":"820","farm":1,"title":"Alaska Anchorage","ispublic":1,"isfriend":0,"isfamily":0},{"id":"40463596365","owner":"27248374@N04","secret":"6c17cee0d8","server":"884","farm":1,"title":"Alaska Anchorage","ispublic":1,"isfriend":0,"isfamily":0},{"id":"40610125004","owner":"27248374@N04","secret":"c28162f878","server":"789","farm":1,"title":"Sleeping Lady Alaska","ispublic":1,"isfriend":0,"isfamily":0},{"id":"39513183330","owner":"24206407@N07","secret":"01aac32066","server":"814","farm":1,"title":"Lush","ispublic":1,"isfriend":0,"isfamily":0},{"id":"41311297871","owner":"27248374@N04","secret":"e833dcbc24","server":"892","farm":1,"title":"Alaska Anchorage","ispublic":1,"isfriend":0,"isfamily":0},{"id":"39451443600","owner":"27248374@N04","secret":"3830c36d14","server":"792","farm":1,"title":"Alaska Anchorage","ispublic":1,"isfriend":0,"isfamily":0},{"id":"40522330044","owner":"27248374@N04","secret":"27bb1b8bae","server":"818","farm":1,"title":"Alaska Anchorage","ispublic":1,"isfriend":0,"isfamily":0},{"id":"40492218064","owner":"128946618@N05","secret":"517035819a","server":"798","farm":1,"title":"The Road to Winterland","ispublic":1,"isfriend":0,"isfamily":0},{"id":"40279018185","owner":"27248374@N04","secret":"89a09a3144","server":"811","farm":1,"title":"Anchorage Skyline & Bootleggers Cove Alaska","ispublic":1,"isfriend":0,"isfamily":0},{"id":"40278672945","owner":"27248374@N04","secret":"abba117546","server":"787","farm":1,"title":"Anchorage Alaska","ispublic":1,"isfriend":0,"isfamily":0},{"id":"41129675892","owner":"27248374@N04","secret":"d5802fab3b","server":"898","farm":1,"title":"Anchorage Bowl Alaska","ispublic":1,"isfriend":0,"isfamily":0},{"id":"39356390260","owner":"27248374@N04","secret":"3f6c2d56b8","server":"797","farm":1,"title":"Seward Highway Alaska","ispublic":1,"isfriend":0,"isfamily":0},{"id":"41152345641","owner":"27248374@N04","secret":"106bce2cef","server":"882","farm":1,"title":"Alyeska Resort Anchorage Alaska","ispublic":1,"isfriend":0,"isfamily":0},{"id":"41080643002","owner":"27248374@N04","secret":"0bf3c00cb1","server":"784","farm":1,"title":"Alyeska Resort Alaska","ispublic":1,"isfriend":0,"isfamily":0},{"id":"39257594510","owner":"27248374@N04","secret":"032640ffa3","server":"875","farm":1,"title":"Seward Highway Alaska","ispublic":1,"isfriend":0,"isfamily":0},{"id":"39255837790","owner":"27248374@N04","secret":"4f129f7b17","server":"892","farm":1,"title":"Seward Highway Alaska","ispublic":1,"isfriend":0,"isfamily":0},{"id":"39232113290","owner":"27248374@N04","secret":"5e69a39a3f","server":"866","farm":1,"title":"Seward Highway Alaska","ispublic":1,"isfriend":0,"isfamily":0},{"id":"40331700874","owner":"27248374@N04","secret":"26572967ea","server":"886","farm":1,"title":"Seward Highway Alaska","ispublic":1,"isfriend":0,"isfamily":0},{"id":"40960672912","owner":"27248374@N04","secret":"da055a98f3","server":"817","farm":1,"title":"Alyeska Resort Alaska","ispublic":1,"isfriend":0,"isfamily":0},{"id":"39165224380","owner":"27248374@N04","secret":"b447b6c2e5","server":"4795","farm":5,"title":"Alaska Anchorage Bowl","ispublic":1,"isfriend":0,"isfamily":0},{"id":"40070566945","owner":"27248374@N04","secret":"04b871317d","server":"4779","farm":5,"title":"Mount Susitna Alaska","ispublic":1,"isfriend":0,"isfamily":0},{"id":"40963584131","owner":"27248374@N04","secret":"243031aa81","server":"4788","farm":5,"title":"Anchorage Alaska","ispublic":1,"isfriend":0,"isfamily":0},{"id":"39152985410","owner":"27248374@N04","secret":"0e347a9c3b","server":"4785","farm":5,"title":"Anchorage Alaska","ispublic":1,"isfriend":0,"isfamily":0},{"id":"40945642781","owner":"27248374@N04","secret":"5deb9fc98d","server":"4777","farm":5,"title":"Alaska Cook Inlet Turnagain Arm","ispublic":1,"isfriend":0,"isfamily":0},{"id":"40944755131","owner":"27248374@N04","secret":"7f7190b411","server":"4776","farm":5,"title":"Alaska The Begich, Boggs Visitor Center","ispublic":1,"isfriend":0,"isfamily":0},{"id":"26071956557","owner":"27248374@N04","secret":"7a8c5a2dbd","server":"821","farm":1,"title":"Alaska Portage Valley","ispublic":1,"isfriend":0,"isfamily":0},{"id":"39924170225","owner":"27248374@N04","secret":"3e5f3a6da4","server":"4784","farm":5,"title":"Anchorage Alaska Tony Knowles Coastal BikeTrail","ispublic":1,"isfriend":0,"isfamily":0},{"id":"40091500984","owner":"27248374@N04","secret":"9a714f5aa7","server":"4795","farm":5,"title":"Kincaid Park Anchorage Alaska","ispublic":1,"isfriend":0,"isfamily":0},{"id":"39900426245","owner":"27248374@N04","secret":"acf4736fbe","server":"4777","farm":5,"title":"Alaska Winter 2018 Anchorage","ispublic":1,"isfriend":0,"isfamily":0},{"id":"39899767895","owner":"27248374@N04","secret":"e773286ed5","server":"4786","farm":5,"title":"Alaska Winter 2018 Anchorage","ispublic":1,"isfriend":0,"isfamily":0},{"id":"26921056228","owner":"27248374@N04","secret":"04a8e280b0","server":"4777","farm":5,"title":"Anchorage Alaska\'s Largest City","ispublic":1,"isfriend":0,"isfamily":0},{"id":"39884752905","owner":"27248374@N04","secret":"ed091c1da5","server":"4795","farm":5,"title":"Anchorage Alaska","ispublic":1,"isfriend":0,"isfamily":0}]},"stat":"ok"}'
p29
sS'encoding'
p30
NsS'url'
p31
Vhttps://api.flickr.com/services/rest/?sort=relevance&has_geo=true&nojsoncallback=1&format=json&tags=anchorage%2C+alaska&method=flickr.photos.search&content_type=1&per_page=500&api_key=92cd8d03af0235c7f0301a87dabedb55&page=1&accuracy=10
p32
sS'status_code'
p33
I200
sS'request'
p34
g1
(crequests.models
PreparedRequest
p35
g3
NtRp36
(dp37
S'body'
p38
Nsg31
S'https://api.flickr.com/services/rest/?sort=relevance&has_geo=true&nojsoncallback=1&format=json&tags=anchorage%2C+alaska&method=flickr.photos.search&content_type=1&per_page=500&api_key=92cd8d03af0235c7f0301a87dabedb55&page=1&accuracy=10'
p39
sS'hooks'
p40
(dp41
S'response'
p42
(lp43
ssS'headers'
p44
g1
(crequests.structures
CaseInsensitiveDict
p45
g3
NtRp46
(dp47
S'_store'
p48
curllib3.packages.ordered_dict
OrderedDict
p49
((lp50
(lp51
S'connection'
p52
a(S'Connection'
p53
S'keep-alive'
p54
tp55
aa(lp56
S'accept-encoding'
p57
a(S'Accept-Encoding'
p58
S'gzip, deflate'
tp59
aa(lp60
S'accept'
p61
a(S'Accept'
p62
S'*/*'
p63
tp64
aa(lp65
S'user-agent'
p66
a(S'User-Agent'
p67
S'python-requests/2.18.4'
tp68
aatRp69
sbsS'_body_position'
p70
Nsg26
g1
(g7
g3
NtRp71
(dp72
g10
I1532664078
sg11
(icookielib
DefaultCookiePolicy
p73
(dp74
g14
I01
sg15
I0
sg16
Nsg17
Nsg18
I00
sg19
I00
sg10
I1532664078
sg20
I00
sg21
I00
sg22
I00
sg23
I00
sg24
(tsg25
I01
sbsg26
(dp75
sbsS'method'
p76
S'GET'
p77
sbsS'elapsed'
p78
cdatetime
timedelta
p79
(I0
I1
I475905
tRp80
sg44
g1
(g45
g3
NtRp81
(dp82
g48
g49
((lp83
(lp84
S'date'
p85
a(S'Date'
p86
S'Fri, 27 Jul 2018 04:01:20 GMT'
p87
tp88
aa(lp89
S'content-type'
p90
a(S'Content-Type'
p91
S'application/json'
p92
tp93
aa(lp94
S'content-length'
p95
a(S'Content-Length'
p96
S'9091'
p97
tp98
aa(lp99
S'p3p'
p100
a(S'P3P'
p101
S'policyref="https://policies.yahoo.com/w3c/p3p.xml", CP="CAO DSP COR CUR ADM DEV TAI PSA PSD IVAi IVDi CONi TELo OTPi OUR DELi SAMi OTRi UNRi PUBi IND PHY ONL UNI PUR FIN COM NAV INT DEM CNT STA POL HEA PRE LOC GOV"'
p102
tp103
aa(lp104
S'x-content-type-options'
p105
a(S'X-Content-Type-Options'
p106
S'nosniff'
p107
tp108
aa(lp109
S'cache-control'
p110
a(S'Cache-Control'
p111
S'private'
p112
tp113
aa(lp114
S'x-served-by'
p115
a(S'X-Served-By'
p116
S'www-bm006.flickr.bf1.yahoo.com'
p117
tp118
aa(lp119
S'x-frame-options'
p120
a(S'X-Frame-Options'
p121
S'SAMEORIGIN'
p122
tp123
aa(lp124
S'vary'
p125
a(S'Vary'
p126
S'Accept-Encoding'
p127
tp128
aa(lp129
S'content-encoding'
p130
a(S'Content-Encoding'
p131
S'gzip'
p132
tp133
aa(lp134
S'age'
p135
a(S'Age'
p136
S'2'
tp137
aa(lp138
S'via'
p139
a(S'Via'
p140
S'http/1.1 fts130.flickr.bf1.yahoo.com (ApacheTrafficServer [cMsSf ]), http/1.1 e17.ycpi.daa.yahoo.com (ApacheTrafficServer [cMsSf ])'
p141
tp142
aa(lp143
S'server'
p144
a(S'Server'
p145
S'ATS'
p146
tp147
aa(lp148
S'connection'
p149
a(S'Connection'
p150
S'keep-alive'
p151
tp152
aa(lp153
S'strict-transport-security'
p154
a(S'Strict-Transport-Security'
p155
S'max-age=15552000'
p156
tp157
aa(lp158
S'expect-ct'
p159
a(S'Expect-CT'
p160
S'max-age=31536000, report-uri="http://csp.yahoo.com/beacon/csp?src=yahoocom-expect-ct-report-only"'
p161
tp162
aa(lp163
S'public-key-pins-report-only'
p164
a(S'Public-Key-Pins-Report-Only'
p165
S'max-age=2592000; pin-sha256="2fRAUXyxl4A1/XHrKNBmc8bTkzA7y4FB/GLJuNAzCqY="; pin-sha256="2oALgLKofTmeZvoZ1y/fSZg7R9jPMix8eVA6DH4o/q8="; pin-sha256="Gtk3r1evlBrs0hG3fm3VoM19daHexDWP//OCmeeMr5M="; pin-sha256="I/Lt/z7ekCWanjD0Cvj5EqXls2lOaThEA0H2Bg4BT/o="; pin-sha256="JbQbUG5JMJUoI6brnx0x3vZF6jilxsapbXGVfjhN8Fg="; pin-sha256="SVqWumuteCQHvVIaALrOZXuzVVVeS7f4FGxxu6V+es4="; pin-sha256="UZJDjsNp1+4M5x9cbbdflB779y5YRBcV6Z6rBMLIrO4="; pin-sha256="Wd8xe/qfTwq3ylFNd3IpaqLHZbh2ZNCLluVzmeNkcpw="; pin-sha256="WoiWRyIOVNa9ihaBciRSC7XHjliYS9VwUGOIud4PB18="; pin-sha256="cAajgxHlj7GTSEIzIYIQxmEloOSoJq7VOaxWHfv72QM="; pin-sha256="dolnbtzEBnELx/9lOEQ22e6OZO/QNb6VSSX2XHA3E7A="; pin-sha256="i7WTqTvh0OioIruIfFR4kMPnBqrS2rdiVPl/s2uC/CY="; pin-sha256="iduNzFNKpwYZ3se/XV+hXcbUonlLw09QPa6AYUwpu4M="; pin-sha256="lnsM2T/O9/J84sJFdnrpsFp3awZJ+ZZbYpCWhGloaHI="; pin-sha256="r/mIkG3eEpVdm+u/ko/cwxzOMo1bk4TyHIlByibiA5E="; pin-sha256="uUwZgwDOxcBXrQcntwu+kYFpkiVkOaezL0WYEZ3anJc="; includeSubdomains; report-uri="http://csp.yahoo.com/beacon/csp?src=yahoocom-hpkp-report-only"'
p166
tp167
aatRp168
sbsS'reason'
p169
S'OK'
p170
sS'history'
p171
(lp172
sb.