(dp1
S'travel'
p2
(dp3
Vstatus
p4
(dp5
Vcode
p6
I10000
sVdescription
p7
VOk
p8
ssVoutputs
p9
(lp10
(dp11
Vstatus
p12
(dp13
Vcode
p14
I10000
sVdescription
p15
VOk
p16
ssVcreated_at
p17
V2018-07-27T03:50:33.571084925Z
p18
sVinput
p19
(dp20
Vdata
p21
(dp22
Vimage
p23
(dp24
Vurl
p25
Vhttps://farm5.staticflickr.com/4766/39550752745_ef7fef9b19_b.jpg
p26
sssVid
p27
Vc9a6fbed603e4970a1a76335aface363
p28
ssVmodel
p29
(dp30
Vdisplay_name
p31
VTravel
p32
sVname
p33
Vtravel-v1.0
p34
sVoutput_info
p35
(dp36
Vtype_ext
p37
Vconcept
p38
sVmessage
p39
VShow output_info with: GET /models/{model_id}/output_info
p40
sVtype
p41
Vconcept
p42
ssVcreated_at
p43
V2016-09-17T22:18:59.955626Z
p44
sVapp_id
p45
Vmain
p46
sVmodel_version
p47
(dp48
Vstatus
p49
(dp50
Vcode
p51
I21100
sVdescription
p52
VModel trained successfully
p53
ssVcreated_at
p54
V2016-09-17T22:18:59.955626Z
p55
sVid
p56
Vd2ffbf9730fd41fea79063270847be82
p57
ssVid
p58
Veee28c313d69466f836ab83287a54ed9
p59
ssVdata
p60
(dp61
Vconcepts
p62
(lp63
(dp64
Vapp_id
p65
Vmain
p66
sVid
p67
Vai_J2x9qKdS
p68
sVvalue
p69
F0.78042363999999997
sVname
p70
VAnimals
p71
sa(dp72
Vapp_id
p73
Vmain
p74
sVid
p75
Vai_1gfzSbdC
p76
sVvalue
p77
F0.48887589999999997
sVname
p78
VEntrance
p79
sa(dp80
Vapp_id
p81
Vmain
p82
sVid
p83
Vai_4jNtvp5v
p84
sVvalue
p85
F0.48377140000000002
sVname
p86
VAutumn
p87
sa(dp88
Vapp_id
p89
Vmain
p90
sVid
p91
Vai_zTxfQQKH
p92
sVvalue
p93
F0.39400323999999998
sVname
p94
VKids Area
p95
sa(dp96
Vapp_id
p97
Vmain
p98
sVid
p99
Vai_hmSzCZd5
p100
sVvalue
p101
F0.35958096000000001
sVname
p102
VDaytime
p103
sa(dp104
Vapp_id
p105
Vmain
p106
sVid
p107
Vai_2QTpTbBt
p108
sVvalue
p109
F0.34610047999999999
sVname
p110
VPeople
p111
sa(dp112
Vapp_id
p113
Vmain
p114
sVid
p115
Vai_NVNKLrCW
p116
sVvalue
p117
F0.34034730000000002
sVname
p118
VDetails
p119
sa(dp120
Vapp_id
p121
Vmain
p122
sVid
p123
Vai_zF1MvGHt
p124
sVvalue
p125
F0.30755179999999999
sVname
p126
VTelevision
p127
sa(dp128
Vapp_id
p129
Vmain
p130
sVid
p131
Vai_XB2b9m4v
p132
sVvalue
p133
F0.27431445999999998
sVname
p134
VSummer
p135
sa(dp136
Vapp_id
p137
Vmain
p138
sVid
p139
Vai_cnHscbDs
p140
sVvalue
p141
F0.26427197000000002
sVname
p142
VReception
p143
sa(dp144
Vapp_id
p145
Vmain
p146
sVid
p147
Vai_3zmv8r1f
p148
sVvalue
p149
F0.25331061999999999
sVname
p150
VGift Shop
p151
sa(dp152
Vapp_id
p153
Vmain
p154
sVid
p155
Vai_MbpTFJxj
p156
sVvalue
p157
F0.2444809
sVname
p158
VGarden
p159
sa(dp160
Vapp_id
p161
Vmain
p162
sVid
p163
Vai_6bSB4lrf
p164
sVvalue
p165
F0.24428754999999999
sVname
p166
VCouch
p167
sa(dp168
Vapp_id
p169
Vmain
p170
sVid
p171
Vai_zXzHH5WQ
p172
sVvalue
p173
F0.24087642000000001
sVname
p174
VStairs
p175
sa(dp176
Vapp_id
p177
Vmain
p178
sVid
p179
Vai_4NvhWszJ
p180
sVvalue
p181
F0.22936052000000001
sVname
p182
VSnow & Ski Sports
p183
sa(dp184
Vapp_id
p185
Vmain
p186
sVid
p187
Vai_wKZngtKg
p188
sVvalue
p189
F0.22882757000000001
sVname
p190
VRestaurant
p191
sa(dp192
Vapp_id
p193
Vmain
p194
sVid
p195
Vai_lt2nKTB2
p196
sVvalue
p197
F0.18694942000000001
sVname
p198
VTerrace
p199
sa(dp200
Vapp_id
p201
Vmain
p202
sVid
p203
Vai_sf6B79BS
p204
sVvalue
p205
F0.18447287000000001
sVname
p206
VSports & Activities
p207
sa(dp208
Vapp_id
p209
Vmain
p210
sVid
p211
Vai_qDnbBFvp
p212
sVvalue
p213
F0.16378456
sVname
p214
VBalcony
p215
sa(dp216
Vapp_id
p217
Vmain
p218
sVid
p219
Vai_NdWWGp3L
p220
sVvalue
p221
F0.16296922
sVname
p222
VHallway
p223
sassVid
p224
V784e041d598542e59b5d448ef4fa99dc
p225
sassS'general'
p226
(dp227
Vstatus
p228
(dp229
Vcode
p230
I10000
sVdescription
p231
VOk
p232
ssVoutputs
p233
(lp234
(dp235
Vstatus
p236
(dp237
Vcode
p238
I10000
sVdescription
p239
VOk
p240
ssVcreated_at
p241
V2018-07-27T03:50:33.226067949Z
p242
sVinput
p243
(dp244
Vdata
p245
(dp246
Vimage
p247
(dp248
Vurl
p249
Vhttps://farm5.staticflickr.com/4766/39550752745_ef7fef9b19_b.jpg
p250
sssVid
p251
Vb7aecbb8d8e64f3fa49ec61a3ae2fb86
p252
ssVmodel
p253
(dp254
Vdisplay_name
p255
VGeneral
p256
sVname
p257
Vgeneral-v1.3
p258
sVoutput_info
p259
(dp260
Vtype_ext
p261
Vconcept
p262
sVmessage
p263
VShow output_info with: GET /models/{model_id}/output_info
p264
sVtype
p265
Vconcept
p266
ssVcreated_at
p267
V2016-03-09T17:11:39.608845Z
p268
sVapp_id
p269
Vmain
p270
sVmodel_version
p271
(dp272
Vstatus
p273
(dp274
Vcode
p275
I21100
sVdescription
p276
VModel trained successfully
p277
ssVcreated_at
p278
V2016-07-13T01:19:12.147644Z
p279
sVid
p280
Vaa9ca48295b37401f8af92ad1af0d91d
p281
ssVid
p282
Vaaa03c23b3724a16a56b629203edc62c
p283
ssVdata
p284
(dp285
Vconcepts
p286
(lp287
(dp288
Vapp_id
p289
Vmain
p290
sVid
p291
Vai_F1L75hRp
p292
sVvalue
p293
F0.99841060000000004
sVname
p294
Vgraffiti
p295
sa(dp296
Vapp_id
p297
Vmain
p298
sVid
p299
Vai_GjVpxXrs
p300
sVvalue
p301
F0.97849050000000004
sVname
p302
Vstreet
p303
sa(dp304
Vapp_id
p305
Vmain
p306
sVid
p307
Vai_l8TKp2h5
p308
sVvalue
p309
F0.97777709999999995
sVname
p310
Vpeople
p311
sa(dp312
Vapp_id
p313
Vmain
p314
sVid
p315
Vai_Dm5GLXnB
p316
sVvalue
p317
F0.95028570000000001
sVname
p318
Villustration
p319
sa(dp320
Vapp_id
p321
Vmain
p322
sVid
p323
Vai_GlPlRlTZ
p324
sVvalue
p325
F0.94598839999999995
sVname
p326
Vvandalism
p327
sa(dp328
Vapp_id
p329
Vmain
p330
sVid
p331
Vai_RQccV41p
p332
sVvalue
p333
F0.94001829999999997
sVname
p334
Vwoman
p335
sa(dp336
Vapp_id
p337
Vmain
p338
sVid
p339
Vai_JBPqff8z
p340
sVvalue
p341
F0.93885390000000002
sVname
p342
Vart
p343
sa(dp344
Vapp_id
p345
Vmain
p346
sVid
p347
Vai_CpFBRWzD
p348
sVvalue
p349
F0.91788446999999995
sVname
p350
Vurban
p351
sa(dp352
Vapp_id
p353
Vmain
p354
sVid
p355
Vai_QrcQWGwJ
p356
sVvalue
p357
F0.89817049999999998
sVname
p358
Vpainting
p359
sa(dp360
Vapp_id
p361
Vmain
p362
sVid
p363
Vai_dxSG2s86
p364
sVvalue
p365
F0.89343189999999995
sVname
p366
Vman
p367
sa(dp368
Vapp_id
p369
Vmain
p370
sVid
p371
Vai_WBQfVV0p
p372
sVvalue
p373
F0.8914995
sVname
p374
Vcity
p375
sa(dp376
Vapp_id
p377
Vmain
p378
sVid
p379
Vai_lbkj2ffx
p380
sVvalue
p381
F0.88874839999999999
sVname
p382
Vwall
p383
sa(dp384
Vapp_id
p385
Vmain
p386
sVid
p387
Vai_VPmHr5bm
p388
sVvalue
p389
F0.88601540000000001
sVname
p390
Vadult
p391
sa(dp392
Vapp_id
p393
Vmain
p394
sVid
p395
Vai_Zmhsv0Ch
p396
sVvalue
p397
F0.88107013999999995
sVname
p398
Voutdoors
p399
sa(dp400
Vapp_id
p401
Vmain
p402
sVid
p403
Vai_djRqCRT8
p404
sVvalue
p405
F0.87725229999999998
sVname
p406
Vculture
p407
sa(dp408
Vapp_id
p409
Vmain
p410
sVid
p411
Vai_8DHFMH3t
p412
sVvalue
p413
F0.8751755
sVname
p414
Vmural
p415
sa(dp416
Vapp_id
p417
Vmain
p418
sVid
p419
Vai_Pvx4FvJ3
p420
sVvalue
p421
F0.87297857000000001
sVname
p422
Vspray
p423
sa(dp424
Vapp_id
p425
Vmain
p426
sVid
p427
Vai_dngMN46t
p428
sVvalue
p429
F0.84729160000000003
sVname
p430
Vfashion
p431
sa(dp432
Vapp_id
p433
Vmain
p434
sVid
p435
Vai_2Bh4VMrb
p436
sVvalue
p437
F0.81379319999999999
sVname
p438
Vartistic
p439
sa(dp440
Vapp_id
p441
Vmain
p442
sVid
p443
Vai_HP6qMkcb
p444
sVvalue
p445
F0.81257740000000001
sVname
p446
Vcreativity
p447
sassVid
p448
Vdf811bc9f72f479db7a73e91bf14ded5
p449
sass.