(dp1
S'travel'
p2
(dp3
Vstatus
p4
(dp5
Vcode
p6
I10000
sVdescription
p7
VOk
p8
ssVoutputs
p9
(lp10
(dp11
Vstatus
p12
(dp13
Vcode
p14
I10000
sVdescription
p15
VOk
p16
ssVcreated_at
p17
V2018-07-27T03:56:15.833740221Z
p18
sVinput
p19
(dp20
Vdata
p21
(dp22
Vimage
p23
(dp24
Vurl
p25
Vhttps://farm2.staticflickr.com/1805/42967523091_3a4362387a_b.jpg
p26
sssVid
p27
Vb5ab50d30ab24b25b677840ab6c5b011
p28
ssVmodel
p29
(dp30
Vdisplay_name
p31
VTravel
p32
sVname
p33
Vtravel-v1.0
p34
sVoutput_info
p35
(dp36
Vtype_ext
p37
Vconcept
p38
sVmessage
p39
VShow output_info with: GET /models/{model_id}/output_info
p40
sVtype
p41
Vconcept
p42
ssVcreated_at
p43
V2016-09-17T22:18:59.955626Z
p44
sVapp_id
p45
Vmain
p46
sVmodel_version
p47
(dp48
Vstatus
p49
(dp50
Vcode
p51
I21100
sVdescription
p52
VModel trained successfully
p53
ssVcreated_at
p54
V2016-09-17T22:18:59.955626Z
p55
sVid
p56
Vd2ffbf9730fd41fea79063270847be82
p57
ssVid
p58
Veee28c313d69466f836ab83287a54ed9
p59
ssVdata
p60
(dp61
Vconcepts
p62
(lp63
(dp64
Vapp_id
p65
Vmain
p66
sVid
p67
Vai_XB2b9m4v
p68
sVvalue
p69
F0.68531310000000001
sVname
p70
VSummer
p71
sa(dp72
Vapp_id
p73
Vmain
p74
sVid
p75
Vai_VvRQQ216
p76
sVvalue
p77
F0.64973179999999997
sVname
p78
VBeach
p79
sa(dp80
Vapp_id
p81
Vmain
p82
sVid
p83
Vai_8lSXGvks
p84
sVvalue
p85
F0.64649593999999999
sVname
p86
VView
p87
sa(dp88
Vapp_id
p89
Vmain
p90
sVid
p91
Vai_zdZZcgX8
p92
sVvalue
p93
F0.62248420000000004
sVname
p94
VSurroundings
p95
sa(dp96
Vapp_id
p97
Vmain
p98
sVid
p99
Vai_q4dFqXVs
p100
sVvalue
p101
F0.60937090000000005
sVname
p102
VBoat
p103
sa(dp104
Vapp_id
p105
Vmain
p106
sVid
p107
Vai_TCZdTr6B
p108
sVvalue
p109
F0.59916199999999997
sVname
p110
VYoga
p111
sa(dp112
Vapp_id
p113
Vmain
p114
sVid
p115
Vai_MbpTFJxj
p116
sVvalue
p117
F0.52541280000000001
sVname
p118
VGarden
p119
sa(dp120
Vapp_id
p121
Vmain
p122
sVid
p123
Vai_tbXzfXXz
p124
sVvalue
p125
F0.51506280000000004
sVname
p126
VOutdoor Pool
p127
sa(dp128
Vapp_id
p129
Vmain
p130
sVid
p131
Vai_T4GN2Cdl
p132
sVvalue
p133
F0.43930544999999999
sVname
p134
VWater Sports
p135
sa(dp136
Vapp_id
p137
Vmain
p138
sVid
p139
Vai_CVQVtMzc
p140
sVvalue
p141
F0.33721702999999997
sVname
p142
VNighttime
p143
sa(dp144
Vapp_id
p145
Vmain
p146
sVid
p147
Vai_B1nLlMJ8
p148
sVvalue
p149
F0.23721316000000001
sVname
p150
VWedding
p151
sa(dp152
Vapp_id
p153
Vmain
p154
sVid
p155
Vai_KpHGGkfp
p156
sVvalue
p157
F0.16438536000000001
sVname
p158
VFountain
p159
sa(dp160
Vapp_id
p161
Vmain
p162
sVid
p163
Vai_hmSzCZd5
p164
sVvalue
p165
F0.13868220000000001
sVname
p166
VDaytime
p167
sa(dp168
Vapp_id
p169
Vmain
p170
sVid
p171
Vai_sf6B79BS
p172
sVvalue
p173
F0.13723888000000001
sVname
p174
VSports & Activities
p175
sa(dp176
Vapp_id
p177
Vmain
p178
sVid
p179
Vai_N09hW8gK
p180
sVvalue
p181
F0.10452154
sVname
p182
VMassage
p183
sa(dp184
Vapp_id
p185
Vmain
p186
sVid
p187
Vai_2jkxl4Fz
p188
sVvalue
p189
F0.10078766
sVname
p190
VSpring
p191
sa(dp192
Vapp_id
p193
Vmain
p194
sVid
p195
Vai_dXWGf1bz
p196
sVvalue
p197
F0.099249309999999993
sVname
p198
VBuilding
p199
sa(dp200
Vapp_id
p201
Vmain
p202
sVid
p203
Vai_CtFL0TP6
p204
sVvalue
p205
F0.098879023999999996
sVname
p206
VWellness & Spa
p207
sa(dp208
Vapp_id
p209
Vmain
p210
sVid
p211
Vai_lt2nKTB2
p212
sVvalue
p213
F0.097573289999999993
sVname
p214
VTerrace
p215
sa(dp216
Vapp_id
p217
Vmain
p218
sVid
p219
Vai_TSHwchFP
p220
sVvalue
p221
F0.094139165999999996
sVname
p222
VCommunal Areas
p223
sassVid
p224
Vff28a23a8a28428082d749ed821fad42
p225
sassS'general'
p226
(dp227
Vstatus
p228
(dp229
Vcode
p230
I10000
sVdescription
p231
VOk
p232
ssVoutputs
p233
(lp234
(dp235
Vstatus
p236
(dp237
Vcode
p238
I10000
sVdescription
p239
VOk
p240
ssVcreated_at
p241
V2018-07-27T03:56:15.219102826Z
p242
sVinput
p243
(dp244
Vdata
p245
(dp246
Vimage
p247
(dp248
Vurl
p249
Vhttps://farm2.staticflickr.com/1805/42967523091_3a4362387a_b.jpg
p250
sssVid
p251
V6bb3356a66764776b109952cf78c49bc
p252
ssVmodel
p253
(dp254
Vdisplay_name
p255
VGeneral
p256
sVname
p257
Vgeneral-v1.3
p258
sVoutput_info
p259
(dp260
Vtype_ext
p261
Vconcept
p262
sVmessage
p263
VShow output_info with: GET /models/{model_id}/output_info
p264
sVtype
p265
Vconcept
p266
ssVcreated_at
p267
V2016-03-09T17:11:39.608845Z
p268
sVapp_id
p269
Vmain
p270
sVmodel_version
p271
(dp272
Vstatus
p273
(dp274
Vcode
p275
I21100
sVdescription
p276
VModel trained successfully
p277
ssVcreated_at
p278
V2016-07-13T01:19:12.147644Z
p279
sVid
p280
Vaa9ca48295b37401f8af92ad1af0d91d
p281
ssVid
p282
Vaaa03c23b3724a16a56b629203edc62c
p283
ssVdata
p284
(dp285
Vconcepts
p286
(lp287
(dp288
Vapp_id
p289
Vmain
p290
sVid
p291
Vai_BlL0wSQh
p292
sVvalue
p293
F0.99512124000000002
sVname
p294
Vwater
p295
sa(dp296
Vapp_id
p297
Vmain
p298
sVid
p299
Vai_J1hw9SFJ
p300
sVvalue
p301
F0.99474209999999996
sVname
p302
Vbeach
p303
sa(dp304
Vapp_id
p305
Vmain
p306
sVid
p307
Vai_Pbd3f6g8
p308
sVvalue
p309
F0.99335074000000001
sVname
p310
Vtropical
p311
sa(dp312
Vapp_id
p313
Vmain
p314
sVid
p315
Vai_PFN0V4SP
p316
sVvalue
p317
F0.99250674000000005
sVname
p318
Vpalm
p319
sa(dp320
Vapp_id
p321
Vmain
p322
sVid
p323
Vai_XNxf76KN
p324
sVvalue
p325
F0.99190509999999998
sVname
p326
Vsunset
p327
sa(dp328
Vapp_id
p329
Vmain
p330
sVid
p331
Vai_mlrv94tv
p332
sVvalue
p333
F0.98546299999999998
sVname
p334
Vreflection
p335
sa(dp336
Vapp_id
p337
Vmain
p338
sVid
p339
Vai_xZgtf58b
p340
sVvalue
p341
F0.98492670000000004
sVname
p342
Vocean
p343
sa(dp344
Vapp_id
p345
Vmain
p346
sVid
p347
Vai_1d4Qk7Nr
p348
sVvalue
p349
F0.98051500000000003
sVname
p350
Vsun
p351
sa(dp352
Vapp_id
p353
Vmain
p354
sVid
p355
Vai_lN6KXkcl
p356
sVvalue
p357
F0.97635099999999997
sVname
p358
Vdawn
p359
sa(dp360
Vapp_id
p361
Vmain
p362
sVid
p363
Vai_lNsKfmXb
p364
sVvalue
p365
F0.96996110000000002
sVname
p366
Vsky
p367
sa(dp368
Vapp_id
p369
Vmain
p370
sVid
p371
Vai_7bRKqWjp
p372
sVvalue
p373
F0.96897480000000002
sVname
p374
Vsea
p375
sa(dp376
Vapp_id
p377
Vmain
p378
sVid
p379
Vai_TjbmxC6B
p380
sVvalue
p381
F0.96882310000000005
sVname
p382
Vtree
p383
sa(dp384
Vapp_id
p385
Vmain
p386
sVid
p387
Vai_1L9grf3k
p388
sVvalue
p389
F0.96777460000000004
sVname
p390
Vexotic
p391
sa(dp392
Vapp_id
p393
Vmain
p394
sVid
p395
Vai_jlzP4C8j
p396
sVvalue
p397
F0.96633210000000003
sVname
p398
Visland
p399
sa(dp400
Vapp_id
p401
Vmain
p402
sVid
p403
Vai_FsT0Zqdb
p404
sVvalue
p405
F0.96540570000000003
sVname
p406
Vsummer
p407
sa(dp408
Vapp_id
p409
Vmain
p410
sVid
p411
Vai_VRmbGVWh
p412
sVvalue
p413
F0.9624992
sVname
p414
Vtravel
p415
sa(dp416
Vapp_id
p417
Vmain
p418
sVid
p419
Vai_mBdgrRbx
p420
sVvalue
p421
F0.95949863999999996
sVname
p422
Vparadise
p423
sa(dp424
Vapp_id
p425
Vmain
p426
sVid
p427
Vai_V0zg5ppH
p428
sVvalue
p429
F0.95473719999999995
sVname
p430
Vseascape
p431
sa(dp432
Vapp_id
p433
Vmain
p434
sVid
p435
Vai_tBcWlsCp
p436
sVvalue
p437
F0.95471589999999995
sVname
p438
Vnature
p439
sa(dp440
Vapp_id
p441
Vmain
p442
sVid
p443
Vai_PJQHT1jg
p444
sVvalue
p445
F0.95092049999999995
sVname
p446
Vevening
p447
sassVid
p448
V2a33e387538d46f192c0c317487b6281
p449
sass.