(dp1
S'travel'
p2
(dp3
Vstatus
p4
(dp5
Vcode
p6
I10000
sVdescription
p7
VOk
p8
ssVoutputs
p9
(lp10
(dp11
Vstatus
p12
(dp13
Vcode
p14
I10000
sVdescription
p15
VOk
p16
ssVcreated_at
p17
V2018-07-27T03:38:13.081135712Z
p18
sVinput
p19
(dp20
Vdata
p21
(dp22
Vimage
p23
(dp24
Vurl
p25
Vhttps://farm1.staticflickr.com/976/28189332438_356c000091_b.jpg
p26
sssVid
p27
V4775d14df00c43929b06b3ca8ad6c00f
p28
ssVmodel
p29
(dp30
Vdisplay_name
p31
VTravel
p32
sVname
p33
Vtravel-v1.0
p34
sVoutput_info
p35
(dp36
Vtype_ext
p37
Vconcept
p38
sVmessage
p39
VShow output_info with: GET /models/{model_id}/output_info
p40
sVtype
p41
Vconcept
p42
ssVcreated_at
p43
V2016-09-17T22:18:59.955626Z
p44
sVapp_id
p45
Vmain
p46
sVmodel_version
p47
(dp48
Vstatus
p49
(dp50
Vcode
p51
I21100
sVdescription
p52
VModel trained successfully
p53
ssVcreated_at
p54
V2016-09-17T22:18:59.955626Z
p55
sVid
p56
Vd2ffbf9730fd41fea79063270847be82
p57
ssVid
p58
Veee28c313d69466f836ab83287a54ed9
p59
ssVdata
p60
(dp61
Vconcepts
p62
(lp63
(dp64
Vapp_id
p65
Vmain
p66
sVid
p67
Vai_XB2b9m4v
p68
sVvalue
p69
F0.89851919999999996
sVname
p70
VSummer
p71
sa(dp72
Vapp_id
p73
Vmain
p74
sVid
p75
Vai_VvRQQ216
p76
sVvalue
p77
F0.79975300000000005
sVname
p78
VBeach
p79
sa(dp80
Vapp_id
p81
Vmain
p82
sVid
p83
Vai_zdZZcgX8
p84
sVvalue
p85
F0.71866229999999998
sVname
p86
VSurroundings
p87
sa(dp88
Vapp_id
p89
Vmain
p90
sVid
p91
Vai_TCZdTr6B
p92
sVvalue
p93
F0.69983150000000005
sVname
p94
VYoga
p95
sa(dp96
Vapp_id
p97
Vmain
p98
sVid
p99
Vai_8lSXGvks
p100
sVvalue
p101
F0.68034600000000001
sVname
p102
VView
p103
sa(dp104
Vapp_id
p105
Vmain
p106
sVid
p107
Vai_T4GN2Cdl
p108
sVvalue
p109
F0.5194067
sVname
p110
VWater Sports
p111
sa(dp112
Vapp_id
p113
Vmain
p114
sVid
p115
Vai_q4dFqXVs
p116
sVvalue
p117
F0.49837038
sVname
p118
VBoat
p119
sa(dp120
Vapp_id
p121
Vmain
p122
sVid
p123
Vai_4NvhWszJ
p124
sVvalue
p125
F0.31386226
sVname
p126
VSnow & Ski Sports
p127
sa(dp128
Vapp_id
p129
Vmain
p130
sVid
p131
Vai_4jNtvp5v
p132
sVvalue
p133
F0.2869332
sVname
p134
VAutumn
p135
sa(dp136
Vapp_id
p137
Vmain
p138
sVid
p139
Vai_hmSzCZd5
p140
sVvalue
p141
F0.28522967999999999
sVname
p142
VDaytime
p143
sa(dp144
Vapp_id
p145
Vmain
p146
sVid
p147
Vai_m7PCbqbx
p148
sVvalue
p149
F0.23273745000000001
sVname
p150
VGolf Course
p151
sa(dp152
Vapp_id
p153
Vmain
p154
sVid
p155
Vai_2jkxl4Fz
p156
sVvalue
p157
F0.117513776
sVname
p158
VSpring
p159
sa(dp160
Vapp_id
p161
Vmain
p162
sVid
p163
Vai_hjvL4F9K
p164
sVvalue
p165
F0.097010040000000006
sVname
p166
VWinter
p167
sa(dp168
Vapp_id
p169
Vmain
p170
sVid
p171
Vai_sf6B79BS
p172
sVvalue
p173
F0.06312719
sVname
p174
VSports & Activities
p175
sa(dp176
Vapp_id
p177
Vmain
p178
sVid
p179
Vai_N09hW8gK
p180
sVvalue
p181
F0.054052610000000001
sVname
p182
VMassage
p183
sa(dp184
Vapp_id
p185
Vmain
p186
sVid
p187
Vai_2QTpTbBt
p188
sVvalue
p189
F0.053030920000000002
sVname
p190
VPeople
p191
sa(dp192
Vapp_id
p193
Vmain
p194
sVid
p195
Vai_8v2Tm2Gl
p196
sVvalue
p197
F0.049629837000000003
sVname
p198
VHot Tub
p199
sa(dp200
Vapp_id
p201
Vmain
p202
sVid
p203
Vai_CVQVtMzc
p204
sVvalue
p205
F0.048241633999999999
sVname
p206
VNighttime
p207
sa(dp208
Vapp_id
p209
Vmain
p210
sVid
p211
Vai_lt2nKTB2
p212
sVvalue
p213
F0.039416659999999999
sVname
p214
VTerrace
p215
sa(dp216
Vapp_id
p217
Vmain
p218
sVid
p219
Vai_rRbfXwwx
p220
sVvalue
p221
F0.036979735
sVname
p222
VChair
p223
sassVid
p224
Vb98ca5cb66064c87ac3e9e69fa0e7d9f
p225
sassS'general'
p226
(dp227
Vstatus
p228
(dp229
Vcode
p230
I10000
sVdescription
p231
VOk
p232
ssVoutputs
p233
(lp234
(dp235
Vstatus
p236
(dp237
Vcode
p238
I10000
sVdescription
p239
VOk
p240
ssVcreated_at
p241
V2018-07-27T03:38:12.403327152Z
p242
sVinput
p243
(dp244
Vdata
p245
(dp246
Vimage
p247
(dp248
Vurl
p249
Vhttps://farm1.staticflickr.com/976/28189332438_356c000091_b.jpg
p250
sssVid
p251
Vc00e7946f3e841088c466fe93f0850ff
p252
ssVmodel
p253
(dp254
Vdisplay_name
p255
VGeneral
p256
sVname
p257
Vgeneral-v1.3
p258
sVoutput_info
p259
(dp260
Vtype_ext
p261
Vconcept
p262
sVmessage
p263
VShow output_info with: GET /models/{model_id}/output_info
p264
sVtype
p265
Vconcept
p266
ssVcreated_at
p267
V2016-03-09T17:11:39.608845Z
p268
sVapp_id
p269
Vmain
p270
sVmodel_version
p271
(dp272
Vstatus
p273
(dp274
Vcode
p275
I21100
sVdescription
p276
VModel trained successfully
p277
ssVcreated_at
p278
V2016-07-13T01:19:12.147644Z
p279
sVid
p280
Vaa9ca48295b37401f8af92ad1af0d91d
p281
ssVid
p282
Vaaa03c23b3724a16a56b629203edc62c
p283
ssVdata
p284
(dp285
Vconcepts
p286
(lp287
(dp288
Vapp_id
p289
Vmain
p290
sVid
p291
Vai_XNxf76KN
p292
sVvalue
p293
F0.99439829999999996
sVname
p294
Vsunset
p295
sa(dp296
Vapp_id
p297
Vmain
p298
sVid
p299
Vai_lN6KXkcl
p300
sVvalue
p301
F0.99100303999999995
sVname
p302
Vdawn
p303
sa(dp304
Vapp_id
p305
Vmain
p306
sVid
p307
Vai_BlL0wSQh
p308
sVvalue
p309
F0.99088746000000005
sVname
p310
Vwater
p311
sa(dp312
Vapp_id
p313
Vmain
p314
sVid
p315
Vai_786Zr311
p316
sVvalue
p317
F0.98248195999999999
sVname
p318
Vno person
p319
sa(dp320
Vapp_id
p321
Vmain
p322
sVid
p323
Vai_PJQHT1jg
p324
sVvalue
p325
F0.97049945999999998
sVname
p326
Vevening
p327
sa(dp328
Vapp_id
p329
Vmain
p330
sVid
p331
Vai_lNsKfmXb
p332
sVvalue
p333
F0.94672559999999994
sVname
p334
Vsky
p335
sa(dp336
Vapp_id
p337
Vmain
p338
sVid
p339
Vai_23p8Lb8k
p340
sVvalue
p341
F0.93650540000000004
sVname
p342
Vdusk
p343
sa(dp344
Vapp_id
p345
Vmain
p346
sVid
p347
Vai_1d4Qk7Nr
p348
sVvalue
p349
F0.93542729999999996
sVname
p350
Vsun
p351
sa(dp352
Vapp_id
p353
Vmain
p354
sVid
p355
Vai_VRmbGVWh
p356
sVvalue
p357
F0.93274546000000003
sVname
p358
Vtravel
p359
sa(dp360
Vapp_id
p361
Vmain
p362
sVid
p363
Vai_mlrv94tv
p364
sVvalue
p365
F0.93050180000000005
sVname
p366
Vreflection
p367
sa(dp368
Vapp_id
p369
Vmain
p370
sVid
p371
Vai_MTvKbKJv
p372
sVvalue
p373
F0.92679714999999996
sVname
p374
Vlandscape
p375
sa(dp376
Vapp_id
p377
Vmain
p378
sVid
p379
Vai_J1hw9SFJ
p380
sVvalue
p381
F0.91224830000000001
sVname
p382
Vbeach
p383
sa(dp384
Vapp_id
p385
Vmain
p386
sVid
p387
Vai_jcThrrq5
p388
sVvalue
p389
F0.90440569999999998
sVname
p390
Vairplane
p391
sa(dp392
Vapp_id
p393
Vmain
p394
sVid
p395
Vai_3DwNCm6R
p396
sVvalue
p397
F0.90115449999999997
sVname
p398
Vlake
p399
sa(dp400
Vapp_id
p401
Vmain
p402
sVid
p403
Vai_xZgtf58b
p404
sVvalue
p405
F0.89056926999999997
sVname
p406
Vocean
p407
sa(dp408
Vapp_id
p409
Vmain
p410
sVid
p411
Vai_7bRKqWjp
p412
sVvalue
p413
F0.88727486
sVname
p414
Vsea
p415
sa(dp416
Vapp_id
p417
Vmain
p418
sVid
p419
Vai_WTrlNkqM
p420
sVvalue
p421
F0.83830755999999995
sVname
p422
Vvehicle
p423
sa(dp424
Vapp_id
p425
Vmain
p426
sVid
p427
Vai_Zmhsv0Ch
p428
sVvalue
p429
F0.82866799999999996
sVname
p430
Voutdoors
p431
sa(dp432
Vapp_id
p433
Vmain
p434
sVid
p435
Vai_n9vjC1jB
p436
sVvalue
p437
F0.82176289999999996
sVname
p438
Vlight
p439
sa(dp440
Vapp_id
p441
Vmain
p442
sVid
p443
Vai_41s912fX
p444
sVvalue
p445
F0.80609629999999999
sVname
p446
Vfair weather
p447
sassVid
p448
V630628538316410f8a62de9e7f06e1a0
p449
sass.