(dp1
S'travel'
p2
(dp3
Vstatus
p4
(dp5
Vcode
p6
I10000
sVdescription
p7
VOk
p8
ssVoutputs
p9
(lp10
(dp11
Vstatus
p12
(dp13
Vcode
p14
I10000
sVdescription
p15
VOk
p16
ssVcreated_at
p17
V2018-07-27T03:41:02.394647360Z
p18
sVinput
p19
(dp20
Vdata
p21
(dp22
Vimage
p23
(dp24
Vurl
p25
Vhttps://farm2.staticflickr.com/1783/42573160855_00de2bee45_b.jpg
p26
sssVid
p27
Ve1efb4980ef54b698ec352c8347c85aa
p28
ssVmodel
p29
(dp30
Vdisplay_name
p31
VTravel
p32
sVname
p33
Vtravel-v1.0
p34
sVoutput_info
p35
(dp36
Vtype_ext
p37
Vconcept
p38
sVmessage
p39
VShow output_info with: GET /models/{model_id}/output_info
p40
sVtype
p41
Vconcept
p42
ssVcreated_at
p43
V2016-09-17T22:18:59.955626Z
p44
sVapp_id
p45
Vmain
p46
sVmodel_version
p47
(dp48
Vstatus
p49
(dp50
Vcode
p51
I21100
sVdescription
p52
VModel trained successfully
p53
ssVcreated_at
p54
V2016-09-17T22:18:59.955626Z
p55
sVid
p56
Vd2ffbf9730fd41fea79063270847be82
p57
ssVid
p58
Veee28c313d69466f836ab83287a54ed9
p59
ssVdata
p60
(dp61
Vconcepts
p62
(lp63
(dp64
Vapp_id
p65
Vmain
p66
sVid
p67
Vai_1gfzSbdC
p68
sVvalue
p69
F0.48866868000000002
sVname
p70
VEntrance
p71
sa(dp72
Vapp_id
p73
Vmain
p74
sVid
p75
Vai_MbpTFJxj
p76
sVvalue
p77
F0.34069768
sVname
p78
VGarden
p79
sa(dp80
Vapp_id
p81
Vmain
p82
sVid
p83
Vai_lt2nKTB2
p84
sVvalue
p85
F0.29781560000000001
sVname
p86
VTerrace
p87
sa(dp88
Vapp_id
p89
Vmain
p90
sVid
p91
Vai_sf6B79BS
p92
sVvalue
p93
F0.28731060000000003
sVname
p94
VSports & Activities
p95
sa(dp96
Vapp_id
p97
Vmain
p98
sVid
p99
Vai_hmSzCZd5
p100
sVvalue
p101
F0.20913941999999999
sVname
p102
VDaytime
p103
sa(dp104
Vapp_id
p105
Vmain
p106
sVid
p107
Vai_KpHGGkfp
p108
sVvalue
p109
F0.19563391999999999
sVname
p110
VFountain
p111
sa(dp112
Vapp_id
p113
Vmain
p114
sVid
p115
Vai_VrkkZ5HT
p116
sVvalue
p117
F0.16856162
sVname
p118
VLogo
p119
sa(dp120
Vapp_id
p121
Vmain
p122
sVid
p123
Vai_q4dFqXVs
p124
sVvalue
p125
F0.16524053999999999
sVname
p126
VBoat
p127
sa(dp128
Vapp_id
p129
Vmain
p130
sVid
p131
Vai_dXWGf1bz
p132
sVvalue
p133
F0.16240056999999999
sVname
p134
VBuilding
p135
sa(dp136
Vapp_id
p137
Vmain
p138
sVid
p139
Vai_XB2b9m4v
p140
sVvalue
p141
F0.15943025
sVname
p142
VSummer
p143
sa(dp144
Vapp_id
p145
Vmain
p146
sVid
p147
Vai_zTxfQQKH
p148
sVvalue
p149
F0.15320902
sVname
p150
VKids Area
p151
sa(dp152
Vapp_id
p153
Vmain
p154
sVid
p155
Vai_zdZZcgX8
p156
sVvalue
p157
F0.14042307000000001
sVname
p158
VSurroundings
p159
sa(dp160
Vapp_id
p161
Vmain
p162
sVid
p163
Vai_wKZngtKg
p164
sVvalue
p165
F0.13547798
sVname
p166
VRestaurant
p167
sa(dp168
Vapp_id
p169
Vmain
p170
sVid
p171
Vai_v5zlpKkc
p172
sVvalue
p173
F0.13367297
sVname
p174
VTennis Court
p175
sa(dp176
Vapp_id
p177
Vmain
p178
sVid
p179
Vai_qDnbBFvp
p180
sVvalue
p181
F0.12029885
sVname
p182
VBalcony
p183
sa(dp184
Vapp_id
p185
Vmain
p186
sVid
p187
Vai_RM5WcxGX
p188
sVvalue
p189
F0.12002032
sVname
p190
VBar
p191
sa(dp192
Vapp_id
p193
Vmain
p194
sVid
p195
Vai_CVQVtMzc
p196
sVvalue
p197
F0.11961098000000001
sVname
p198
VNighttime
p199
sa(dp200
Vapp_id
p201
Vmain
p202
sVid
p203
Vai_8lSXGvks
p204
sVvalue
p205
F0.111802004
sVname
p206
VView
p207
sa(dp208
Vapp_id
p209
Vmain
p210
sVid
p211
Vai_B1nLlMJ8
p212
sVvalue
p213
F0.10873657
sVname
p214
VWedding
p215
sa(dp216
Vapp_id
p217
Vmain
p218
sVid
p219
Vai_cnHscbDs
p220
sVvalue
p221
F0.102254964
sVname
p222
VReception
p223
sassVid
p224
Va7397cba7b63423eae366538c3a9ed91
p225
sassS'general'
p226
(dp227
Vstatus
p228
(dp229
Vcode
p230
I10000
sVdescription
p231
VOk
p232
ssVoutputs
p233
(lp234
(dp235
Vstatus
p236
(dp237
Vcode
p238
I10000
sVdescription
p239
VOk
p240
ssVcreated_at
p241
V2018-07-27T03:41:01.547490323Z
p242
sVinput
p243
(dp244
Vdata
p245
(dp246
Vimage
p247
(dp248
Vurl
p249
Vhttps://farm2.staticflickr.com/1783/42573160855_00de2bee45_b.jpg
p250
sssVid
p251
Vf38e47284262421c96adb58da4486dc5
p252
ssVmodel
p253
(dp254
Vdisplay_name
p255
VGeneral
p256
sVname
p257
Vgeneral-v1.3
p258
sVoutput_info
p259
(dp260
Vtype_ext
p261
Vconcept
p262
sVmessage
p263
VShow output_info with: GET /models/{model_id}/output_info
p264
sVtype
p265
Vconcept
p266
ssVcreated_at
p267
V2016-03-09T17:11:39.608845Z
p268
sVapp_id
p269
Vmain
p270
sVmodel_version
p271
(dp272
Vstatus
p273
(dp274
Vcode
p275
I21100
sVdescription
p276
VModel trained successfully
p277
ssVcreated_at
p278
V2016-07-13T01:19:12.147644Z
p279
sVid
p280
Vaa9ca48295b37401f8af92ad1af0d91d
p281
ssVid
p282
Vaaa03c23b3724a16a56b629203edc62c
p283
ssVdata
p284
(dp285
Vconcepts
p286
(lp287
(dp288
Vapp_id
p289
Vmain
p290
sVid
p291
Vai_786Zr311
p292
sVvalue
p293
F0.96542850000000002
sVname
p294
Vno person
p295
sa(dp296
Vapp_id
p297
Vmain
p298
sVid
p299
Vai_Zmhsv0Ch
p300
sVvalue
p301
F0.92857590000000001
sVname
p302
Voutdoors
p303
sa(dp304
Vapp_id
p305
Vmain
p306
sVid
p307
Vai_lNsKfmXb
p308
sVvalue
p309
F0.92716659999999995
sVname
p310
Vsky
p311
sa(dp312
Vapp_id
p313
Vmain
p314
sVid
p315
Vai_VRmbGVWh
p316
sVvalue
p317
F0.91121209999999997
sVname
p318
Vtravel
p319
sa(dp320
Vapp_id
p321
Vmain
p322
sVid
p323
Vai_Xxjc3MhT
p324
sVvalue
p325
F0.90770150000000005
sVname
p326
Vtransportation system
p327
sa(dp328
Vapp_id
p329
Vmain
p330
sVid
p331
Vai_TZ3C79C6
p332
sVvalue
p333
F0.88878869999999999
sVname
p334
Vroad
p335
sa(dp336
Vapp_id
p337
Vmain
p338
sVid
p339
Vai_6lhccv44
p340
sVvalue
p341
F0.88521755000000002
sVname
p342
Vbusiness
p343
sa(dp344
Vapp_id
p345
Vmain
p346
sVid
p347
Vai_ggQlMG6W
p348
sVvalue
p349
F0.88043459999999996
sVname
p350
Vindustry
p351
sa(dp352
Vapp_id
p353
Vmain
p354
sVid
p355
Vai_rsX6XWc2
p356
sVvalue
p357
F0.87827049999999995
sVname
p358
Vbuilding
p359
sa(dp360
Vapp_id
p361
Vmain
p362
sVid
p363
Vai_FWCjC8jZ
p364
sVvalue
p365
F0.86639869999999997
sVname
p366
Varchitecture
p367
sa(dp368
Vapp_id
p369
Vmain
p370
sVid
p371
Vai_WBQfVV0p
p372
sVvalue
p373
F0.86591669999999998
sVname
p374
Vcity
p375
sa(dp376
Vapp_id
p377
Vmain
p378
sVid
p379
Vai_LplXDDZ2
p380
sVvalue
p381
F0.85628283000000005
sVname
p382
Vcar
p383
sa(dp384
Vapp_id
p385
Vmain
p386
sVid
p387
Vai_CpFBRWzD
p388
sVvalue
p389
F0.85372126000000004
sVname
p390
Vurban
p391
sa(dp392
Vapp_id
p393
Vmain
p394
sVid
p395
Vai_GjVpxXrs
p396
sVvalue
p397
F0.84325779999999995
sVname
p398
Vstreet
p399
sa(dp400
Vapp_id
p401
Vmain
p402
sVid
p403
Vai_FsT0Zqdb
p404
sVvalue
p405
F0.84073500000000001
sVname
p406
Vsummer
p407
sa(dp408
Vapp_id
p409
Vmain
p410
sVid
p411
Vai_m52MdMR3
p412
sVvalue
p413
F0.82933204999999999
sVname
p414
Viron
p415
sa(dp416
Vapp_id
p417
Vmain
p418
sVid
p419
Vai_XdwTxJz3
p420
sVvalue
p421
F0.82414925000000006
sVname
p422
Vsteel
p423
sa(dp424
Vapp_id
p425
Vmain
p426
sVid
p427
Vai_tr0MBp64
p428
sVvalue
p429
F0.77817619999999998
sVname
p430
Vtraffic
p431
sa(dp432
Vapp_id
p433
Vmain
p434
sVid
p435
Vai_pkTCvPnh
p436
sVvalue
p437
F0.76932012999999999
sVname
p438
Vgate
p439
sa(dp440
Vapp_id
p441
Vmain
p442
sVid
p443
Vai_PBTpj0kl
p444
sVvalue
p445
F0.75638574000000003
sVname
p446
Vpark
p447
sassVid
p448
V0cd9d513330046fa85aba725597dc69a
p449
sass.