(dp1
S'travel'
p2
(dp3
Vstatus
p4
(dp5
Vcode
p6
I10000
sVdescription
p7
VOk
p8
ssVoutputs
p9
(lp10
(dp11
Vstatus
p12
(dp13
Vcode
p14
I10000
sVdescription
p15
VOk
p16
ssVcreated_at
p17
V2018-07-27T03:56:20.729494379Z
p18
sVinput
p19
(dp20
Vdata
p21
(dp22
Vimage
p23
(dp24
Vurl
p25
Vhttps://farm2.staticflickr.com/1741/28634760618_d65906187e_b.jpg
p26
sssVid
p27
Vf49554fe13a64b688e2185622792dcb2
p28
ssVmodel
p29
(dp30
Vdisplay_name
p31
VTravel
p32
sVname
p33
Vtravel-v1.0
p34
sVoutput_info
p35
(dp36
Vtype_ext
p37
Vconcept
p38
sVmessage
p39
VShow output_info with: GET /models/{model_id}/output_info
p40
sVtype
p41
Vconcept
p42
ssVcreated_at
p43
V2016-09-17T22:18:59.955626Z
p44
sVapp_id
p45
Vmain
p46
sVmodel_version
p47
(dp48
Vstatus
p49
(dp50
Vcode
p51
I21100
sVdescription
p52
VModel trained successfully
p53
ssVcreated_at
p54
V2016-09-17T22:18:59.955626Z
p55
sVid
p56
Vd2ffbf9730fd41fea79063270847be82
p57
ssVid
p58
Veee28c313d69466f836ab83287a54ed9
p59
ssVdata
p60
(dp61
Vconcepts
p62
(lp63
(dp64
Vapp_id
p65
Vmain
p66
sVid
p67
Vai_Gg9h60xC
p68
sVvalue
p69
F0.93684369999999995
sVname
p70
VFood & Beverages
p71
sa(dp72
Vapp_id
p73
Vmain
p74
sVid
p75
Vai_Dfn704P0
p76
sVvalue
p77
F0.62437299999999996
sVname
p78
VBreakfast Buffet
p79
sa(dp80
Vapp_id
p81
Vmain
p82
sVid
p83
Vai_wKZngtKg
p84
sVvalue
p85
F0.44623000000000002
sVname
p86
VRestaurant
p87
sa(dp88
Vapp_id
p89
Vmain
p90
sVid
p91
Vai_4jNtvp5v
p92
sVvalue
p93
F0.42054644000000002
sVname
p94
VAutumn
p95
sa(dp96
Vapp_id
p97
Vmain
p98
sVid
p99
Vai_NVNKLrCW
p100
sVvalue
p101
F0.25117640000000002
sVname
p102
VDetails
p103
sa(dp104
Vapp_id
p105
Vmain
p106
sVid
p107
Vai_B1nLlMJ8
p108
sVvalue
p109
F0.20752524999999999
sVname
p110
VWedding
p111
sa(dp112
Vapp_id
p113
Vmain
p114
sVid
p115
Vai_RM5WcxGX
p116
sVvalue
p117
F0.13530265999999999
sVname
p118
VBar
p119
sa(dp120
Vapp_id
p121
Vmain
p122
sVid
p123
Vai_K7dZBpd9
p124
sVvalue
p125
F0.095755199999999999
sVname
p126
VLounge
p127
sa(dp128
Vapp_id
p129
Vmain
p130
sVid
p131
Vai_lt2nKTB2
p132
sVvalue
p133
F0.084103629999999999
sVname
p134
VTerrace
p135
sa(dp136
Vapp_id
p137
Vmain
p138
sVid
p139
Vai_1lSRr75N
p140
sVvalue
p141
F0.082987649999999996
sVname
p142
VIn-Room Kitchenette
p143
sa(dp144
Vapp_id
p145
Vmain
p146
sVid
p147
Vai_PwpRfsD8
p148
sVvalue
p149
F0.079424724000000002
sVname
p150
VCoffee Machine
p151
sa(dp152
Vapp_id
p153
Vmain
p154
sVid
p155
Vai_q4dFqXVs
p156
sVvalue
p157
F0.059359415999999998
sVname
p158
VBoat
p159
sa(dp160
Vapp_id
p161
Vmain
p162
sVid
p163
Vai_PtsQBLC8
p164
sVvalue
p165
F0.043994255000000003
sVname
p166
VFireplace
p167
sa(dp168
Vapp_id
p169
Vmain
p170
sVid
p171
Vai_MbpTFJxj
p172
sVvalue
p173
F0.039077084999999998
sVname
p174
VGarden
p175
sa(dp176
Vapp_id
p177
Vmain
p178
sVid
p179
Vai_rRbfXwwx
p180
sVvalue
p181
F0.038625263
sVname
p182
VChair
p183
sa(dp184
Vapp_id
p185
Vmain
p186
sVid
p187
Vai_1gfzSbdC
p188
sVvalue
p189
F0.038571849999999998
sVname
p190
VEntrance
p191
sa(dp192
Vapp_id
p193
Vmain
p194
sVid
p195
Vai_TSHwchFP
p196
sVvalue
p197
F0.038125865000000002
sVname
p198
VCommunal Areas
p199
sa(dp200
Vapp_id
p201
Vmain
p202
sVid
p203
Vai_hmSzCZd5
p204
sVvalue
p205
F0.037597789999999999
sVname
p206
VDaytime
p207
sa(dp208
Vapp_id
p209
Vmain
p210
sVid
p211
Vai_2QTpTbBt
p212
sVvalue
p213
F0.036313079999999998
sVname
p214
VPeople
p215
sa(dp216
Vapp_id
p217
Vmain
p218
sVid
p219
Vai_sf6B79BS
p220
sVvalue
p221
F0.028842110000000001
sVname
p222
VSports & Activities
p223
sassVid
p224
Vcc216d2fc3854376a7bc8af68d6efd49
p225
sassS'general'
p226
(dp227
Vstatus
p228
(dp229
Vcode
p230
I10000
sVdescription
p231
VOk
p232
ssVoutputs
p233
(lp234
(dp235
Vstatus
p236
(dp237
Vcode
p238
I10000
sVdescription
p239
VOk
p240
ssVcreated_at
p241
V2018-07-27T03:56:19.938728588Z
p242
sVinput
p243
(dp244
Vdata
p245
(dp246
Vimage
p247
(dp248
Vurl
p249
Vhttps://farm2.staticflickr.com/1741/28634760618_d65906187e_b.jpg
p250
sssVid
p251
V5fbd7c82970a49dd856faedc1f840762
p252
ssVmodel
p253
(dp254
Vdisplay_name
p255
VGeneral
p256
sVname
p257
Vgeneral-v1.3
p258
sVoutput_info
p259
(dp260
Vtype_ext
p261
Vconcept
p262
sVmessage
p263
VShow output_info with: GET /models/{model_id}/output_info
p264
sVtype
p265
Vconcept
p266
ssVcreated_at
p267
V2016-03-09T17:11:39.608845Z
p268
sVapp_id
p269
Vmain
p270
sVmodel_version
p271
(dp272
Vstatus
p273
(dp274
Vcode
p275
I21100
sVdescription
p276
VModel trained successfully
p277
ssVcreated_at
p278
V2016-07-13T01:19:12.147644Z
p279
sVid
p280
Vaa9ca48295b37401f8af92ad1af0d91d
p281
ssVid
p282
Vaaa03c23b3724a16a56b629203edc62c
p283
ssVdata
p284
(dp285
Vconcepts
p286
(lp287
(dp288
Vapp_id
p289
Vmain
p290
sVid
p291
Vai_3PlgVmlN
p292
sVvalue
p293
F0.99121093999999998
sVname
p294
Vfood
p295
sa(dp296
Vapp_id
p297
Vmain
p298
sVid
p299
Vai_786Zr311
p300
sVvalue
p301
F0.98273109999999997
sVname
p302
Vno person
p303
sa(dp304
Vapp_id
p305
Vmain
p306
sVid
p307
Vai_7D0mdp1W
p308
sVvalue
p309
F0.96171669999999998
sVname
p310
Vdelicious
p311
sa(dp312
Vapp_id
p313
Vmain
p314
sVid
p315
Vai_s9XQJtDb
p316
sVvalue
p317
F0.94988919999999999
sVname
p318
Vdinner
p319
sa(dp320
Vapp_id
p321
Vmain
p322
sVid
p323
Vai_hJpmfcGg
p324
sVvalue
p325
F0.94557153999999999
sVname
p326
Vlunch
p327
sa(dp328
Vapp_id
p329
Vmain
p330
sVid
p331
Vai_4h92rcQj
p332
sVvalue
p333
F0.94464004000000001
sVname
p334
Vrice
p335
sa(dp336
Vapp_id
p337
Vmain
p338
sVid
p339
Vai_KXNqVd5F
p340
sVvalue
p341
F0.93869519999999995
sVname
p342
Vcooking
p343
sa(dp344
Vapp_id
p345
Vmain
p346
sVid
p347
Vai_C5MDXWL5
p348
sVvalue
p349
F0.93141304999999996
sVname
p350
Vdish
p351
sa(dp352
Vapp_id
p353
Vmain
p354
sVid
p355
Vai_LNw3L7mQ
p356
sVvalue
p357
F0.93139400000000006
sVname
p358
Vmeal
p359
sa(dp360
Vapp_id
p361
Vmain
p362
sVid
p363
Vai_XclQc6bP
p364
sVvalue
p365
F0.92034936000000001
sVname
p366
Vtraditional
p367
sa(dp368
Vapp_id
p369
Vmain
p370
sVid
p371
Vai_CBrmhd40
p372
sVvalue
p373
F0.90616786000000005
sVname
p374
Vplate
p375
sa(dp376
Vapp_id
p377
Vmain
p378
sVid
p379
Vai_WbwL0pPL
p380
sVvalue
p381
F0.90565156999999996
sVname
p382
Vbreakfast
p383
sa(dp384
Vapp_id
p385
Vmain
p386
sVid
p387
Vai_mZ2tl6cW
p388
sVvalue
p389
F0.90552104
sVname
p390
Vhealth
p391
sa(dp392
Vapp_id
p393
Vmain
p394
sVid
p395
Vai_9b1HcHHP
p396
sVvalue
p397
F0.89577569999999995
sVname
p398
Vhomemade
p399
sa(dp400
Vapp_id
p401
Vmain
p402
sVid
p403
Vai_0mCQLwrm
p404
sVvalue
p405
F0.89464259999999995
sVname
p406
Vhealthy
p407
sa(dp408
Vapp_id
p409
Vmain
p410
sVid
p411
Vai_mrWb5vrZ
p412
sVvalue
p413
F0.88872134999999997
sVname
p414
Vhot
p415
sa(dp416
Vapp_id
p417
Vmain
p418
sVid
p419
Vai_nl2sV1Hm
p420
sVvalue
p421
F0.88543844000000005
sVname
p422
Vnutrition
p423
sa(dp424
Vapp_id
p425
Vmain
p426
sVid
p427
Vai_LpcgM7r5
p428
sVvalue
p429
F0.87224650000000004
sVname
p430
Vvegetable
p431
sa(dp432
Vapp_id
p433
Vmain
p434
sVid
p435
Vai_VM70xlRs
p436
sVvalue
p437
F0.87144880000000002
sVname
p438
Vcuisine
p439
sa(dp440
Vapp_id
p441
Vmain
p442
sVid
p443
Vai_R6xGCTcC
p444
sVvalue
p445
F0.86976039999999999
sVname
p446
Vmeat
p447
sassVid
p448
V3bc57e0669ce437ca2509754608a5587
p449
sass.