(dp1
S'travel'
p2
(dp3
Vstatus
p4
(dp5
Vcode
p6
I10000
sVdescription
p7
VOk
p8
ssVoutputs
p9
(lp10
(dp11
Vstatus
p12
(dp13
Vcode
p14
I10000
sVdescription
p15
VOk
p16
ssVcreated_at
p17
V2018-07-27T04:07:23.052032703Z
p18
sVinput
p19
(dp20
Vdata
p21
(dp22
Vimage
p23
(dp24
Vurl
p25
Vhttps://farm2.staticflickr.com/1728/42508623582_d467191890_b.jpg
p26
sssVid
p27
V88226ed8366b42a8bbc550c48619cc7b
p28
ssVmodel
p29
(dp30
Vdisplay_name
p31
VTravel
p32
sVname
p33
Vtravel-v1.0
p34
sVoutput_info
p35
(dp36
Vtype_ext
p37
Vconcept
p38
sVmessage
p39
VShow output_info with: GET /models/{model_id}/output_info
p40
sVtype
p41
Vconcept
p42
ssVcreated_at
p43
V2016-09-17T22:18:59.955626Z
p44
sVapp_id
p45
Vmain
p46
sVmodel_version
p47
(dp48
Vstatus
p49
(dp50
Vcode
p51
I21100
sVdescription
p52
VModel trained successfully
p53
ssVcreated_at
p54
V2016-09-17T22:18:59.955626Z
p55
sVid
p56
Vd2ffbf9730fd41fea79063270847be82
p57
ssVid
p58
Veee28c313d69466f836ab83287a54ed9
p59
ssVdata
p60
(dp61
Vconcepts
p62
(lp63
(dp64
Vapp_id
p65
Vmain
p66
sVid
p67
Vai_J2x9qKdS
p68
sVvalue
p69
F0.98931829999999998
sVname
p70
VAnimals
p71
sa(dp72
Vapp_id
p73
Vmain
p74
sVid
p75
Vai_hmSzCZd5
p76
sVvalue
p77
F0.30112085
sVname
p78
VDaytime
p79
sa(dp80
Vapp_id
p81
Vmain
p82
sVid
p83
Vai_4jNtvp5v
p84
sVvalue
p85
F0.17204580999999999
sVname
p86
VAutumn
p87
sa(dp88
Vapp_id
p89
Vmain
p90
sVid
p91
Vai_KpHGGkfp
p92
sVvalue
p93
F0.16245999999999999
sVname
p94
VFountain
p95
sa(dp96
Vapp_id
p97
Vmain
p98
sVid
p99
Vai_MbpTFJxj
p100
sVvalue
p101
F0.11987054
sVname
p102
VGarden
p103
sa(dp104
Vapp_id
p105
Vmain
p106
sVid
p107
Vai_XB2b9m4v
p108
sVvalue
p109
F0.11693928000000001
sVname
p110
VSummer
p111
sa(dp112
Vapp_id
p113
Vmain
p114
sVid
p115
Vai_NVNKLrCW
p116
sVvalue
p117
F0.11580312
sVname
p118
VDetails
p119
sa(dp120
Vapp_id
p121
Vmain
p122
sVid
p123
Vai_zF1MvGHt
p124
sVvalue
p125
F0.10132086999999999
sVname
p126
VTelevision
p127
sa(dp128
Vapp_id
p129
Vmain
p130
sVid
p131
Vai_zdZZcgX8
p132
sVvalue
p133
F0.093938224000000001
sVname
p134
VSurroundings
p135
sa(dp136
Vapp_id
p137
Vmain
p138
sVid
p139
Vai_2QTpTbBt
p140
sVvalue
p141
F0.081861550000000005
sVname
p142
VPeople
p143
sa(dp144
Vapp_id
p145
Vmain
p146
sVid
p147
Vai_8lSXGvks
p148
sVvalue
p149
F0.071371734000000006
sVname
p150
VView
p151
sa(dp152
Vapp_id
p153
Vmain
p154
sVid
p155
Vai_2jkxl4Fz
p156
sVvalue
p157
F0.070073670000000005
sVname
p158
VSpring
p159
sa(dp160
Vapp_id
p161
Vmain
p162
sVid
p163
Vai_6bSB4lrf
p164
sVvalue
p165
F0.066722950000000003
sVname
p166
VCouch
p167
sa(dp168
Vapp_id
p169
Vmain
p170
sVid
p171
Vai_T4GN2Cdl
p172
sVvalue
p173
F0.063432020000000006
sVname
p174
VWater Sports
p175
sa(dp176
Vapp_id
p177
Vmain
p178
sVid
p179
Vai_rRbfXwwx
p180
sVvalue
p181
F0.060302759999999997
sVname
p182
VChair
p183
sa(dp184
Vapp_id
p185
Vmain
p186
sVid
p187
Vai_TCZdTr6B
p188
sVvalue
p189
F0.053930994000000003
sVname
p190
VYoga
p191
sa(dp192
Vapp_id
p193
Vmain
p194
sVid
p195
Vai_4NvhWszJ
p196
sVvalue
p197
F0.053444829999999999
sVname
p198
VSnow & Ski Sports
p199
sa(dp200
Vapp_id
p201
Vmain
p202
sVid
p203
Vai_B1nLlMJ8
p204
sVvalue
p205
F0.043718383
sVname
p206
VWedding
p207
sa(dp208
Vapp_id
p209
Vmain
p210
sVid
p211
Vai_wKZngtKg
p212
sVvalue
p213
F0.042690596999999997
sVname
p214
VRestaurant
p215
sa(dp216
Vapp_id
p217
Vmain
p218
sVid
p219
Vai_q4dFqXVs
p220
sVvalue
p221
F0.034997913999999998
sVname
p222
VBoat
p223
sassVid
p224
V2ffca3e04f50421bad8716a63d28df6f
p225
sassS'general'
p226
(dp227
Vstatus
p228
(dp229
Vcode
p230
I10000
sVdescription
p231
VOk
p232
ssVoutputs
p233
(lp234
(dp235
Vstatus
p236
(dp237
Vcode
p238
I10000
sVdescription
p239
VOk
p240
ssVcreated_at
p241
V2018-07-27T04:07:22.443145181Z
p242
sVinput
p243
(dp244
Vdata
p245
(dp246
Vimage
p247
(dp248
Vurl
p249
Vhttps://farm2.staticflickr.com/1728/42508623582_d467191890_b.jpg
p250
sssVid
p251
V416b131e07c44a1488859f60db644474
p252
ssVmodel
p253
(dp254
Vdisplay_name
p255
VGeneral
p256
sVname
p257
Vgeneral-v1.3
p258
sVoutput_info
p259
(dp260
Vtype_ext
p261
Vconcept
p262
sVmessage
p263
VShow output_info with: GET /models/{model_id}/output_info
p264
sVtype
p265
Vconcept
p266
ssVcreated_at
p267
V2016-03-09T17:11:39.608845Z
p268
sVapp_id
p269
Vmain
p270
sVmodel_version
p271
(dp272
Vstatus
p273
(dp274
Vcode
p275
I21100
sVdescription
p276
VModel trained successfully
p277
ssVcreated_at
p278
V2016-07-13T01:19:12.147644Z
p279
sVid
p280
Vaa9ca48295b37401f8af92ad1af0d91d
p281
ssVid
p282
Vaaa03c23b3724a16a56b629203edc62c
p283
ssVdata
p284
(dp285
Vconcepts
p286
(lp287
(dp288
Vapp_id
p289
Vmain
p290
sVid
p291
Vai_G2PvQtHz
p292
sVvalue
p293
F0.99873230000000002
sVname
p294
Vbird
p295
sa(dp296
Vapp_id
p297
Vmain
p298
sVid
p299
Vai_n2whVnlx
p300
sVvalue
p301
F0.99371593999999996
sVname
p302
Vfeather
p303
sa(dp304
Vapp_id
p305
Vmain
p306
sVid
p307
Vai_QpmxG1VS
p308
sVvalue
p309
F0.99098635000000002
sVname
p310
Vbeak
p311
sa(dp312
Vapp_id
p313
Vmain
p314
sVid
p315
Vai_tBcWlsCp
p316
sVvalue
p317
F0.99090299999999998
sVname
p318
Vnature
p319
sa(dp320
Vapp_id
p321
Vmain
p322
sVid
p323
Vai_fbqvMwRm
p324
sVvalue
p325
F0.97845219999999999
sVname
p326
Vwildlife
p327
sa(dp328
Vapp_id
p329
Vmain
p330
sVid
p331
Vai_SzsXMB1w
p332
sVvalue
p333
F0.97566710000000001
sVname
p334
Vanimal
p335
sa(dp336
Vapp_id
p337
Vmain
p338
sVid
p339
Vai_dXMqcd7K
p340
sVvalue
p341
F0.97381059999999997
sVname
p342
Vwing
p343
sa(dp344
Vapp_id
p345
Vmain
p346
sVid
p347
Vai_Pbd3f6g8
p348
sVvalue
p349
F0.97078129999999996
sVname
p350
Vtropical
p351
sa(dp352
Vapp_id
p353
Vmain
p354
sVid
p355
Vai_vwHWlsQD
p356
sVvalue
p357
F0.96792482999999996
sVname
p358
Vbird beak
p359
sa(dp360
Vapp_id
p361
Vmain
p362
sVid
p363
Vai_HDqK5lNg
p364
sVvalue
p365
F0.96353789999999995
sVname
p366
Vwild
p367
sa(dp368
Vapp_id
p369
Vmain
p370
sVid
p371
Vai_McwR6sRc
p372
sVvalue
p373
F0.95871835999999999
sVname
p374
Vhead
p375
sa(dp376
Vapp_id
p377
Vmain
p378
sVid
p379
Vai_1L9grf3k
p380
sVvalue
p381
F0.95545190000000002
sVname
p382
Vexotic
p383
sa(dp384
Vapp_id
p385
Vmain
p386
sVid
p387
Vai_TJ9wFfK5
p388
sVvalue
p389
F0.95315609999999995
sVname
p390
Vportrait
p391
sa(dp392
Vapp_id
p393
Vmain
p394
sVid
p395
Vai_786Zr311
p396
sVvalue
p397
F0.95289402999999995
sVname
p398
Vno person
p399
sa(dp400
Vapp_id
p401
Vmain
p402
sVid
p403
Vai_bBl132T0
p404
sVvalue
p405
F0.94992120000000002
sVname
p406
Vzoo
p407
sa(dp408
Vapp_id
p409
Vmain
p410
sVid
p411
Vai_S1hz2X3V
p412
sVvalue
p413
F0.94673883999999997
sVname
p414
Vpelican
p415
sa(dp416
Vapp_id
p417
Vmain
p418
sVid
p419
Vai_r8gdQ9NM
p420
sVvalue
p421
F0.91843750000000002
sVname
p422
Vneck
p423
sa(dp424
Vapp_id
p425
Vmain
p426
sVid
p427
Vai_D2QTphLz
p428
sVvalue
p429
F0.91218745999999995
sVname
p430
Vlarge
p431
sa(dp432
Vapp_id
p433
Vmain
p434
sVid
p435
Vai_ZrZ2XRhk
p436
sVvalue
p437
F0.90179246999999996
sVname
p438
Vdisjunct
p439
sa(dp440
Vapp_id
p441
Vmain
p442
sVid
p443
Vai_vB28NG85
p444
sVvalue
p445
F0.89917029999999998
sVname
p446
Vpoultry
p447
sassVid
p448
V74db65cb1c9b4892b81fafeb6aac1c6e
p449
sass.