ccopy_reg
_reconstructor
p1
(crequests.models
Response
p2
c__builtin__
object
p3
NtRp4
(dp5
S'cookies'
p6
g1
(crequests.cookies
RequestsCookieJar
p7
g3
NtRp8
(dp9
S'_now'
p10
I1532663834
sS'_policy'
p11
(icookielib
DefaultCookiePolicy
p12
(dp13
S'strict_rfc2965_unverifiable'
p14
I01
sS'strict_ns_domain'
p15
I0
sS'_allowed_domains'
p16
NsS'rfc2109_as_netscape'
p17
NsS'rfc2965'
p18
I00
sS'strict_domain'
p19
I00
sg10
I1532663834
sS'strict_ns_set_path'
p20
I00
sS'strict_ns_unverifiable'
p21
I00
sS'strict_ns_set_initial_dollar'
p22
I00
sS'hide_cookie2'
p23
I00
sS'_blocked_domains'
p24
(tsS'netscape'
p25
I01
sbsS'_cookies'
p26
(dp27
sbsS'_content'
p28
S'{"photos":{"page":1,"pages":1754,"perpage":250,"total":"438395","photo":[{"id":"28386332427","owner":"96499116@N06","secret":"e86cf5f782","server":"1769","farm":2,"title":"You mind your business, I\'ll mind mine!","ispublic":1,"isfriend":0,"isfamily":0},{"id":"35548637980","owner":"51035555243@N01","secret":"d22e2a2962","server":"4318","farm":5,"title":"Love You Every Day","ispublic":1,"isfriend":0,"isfamily":0},{"id":"34861437740","owner":"51035555243@N01","secret":"d748a5033c","server":"4255","farm":5,"title":"Salt Lake Temple","ispublic":1,"isfriend":0,"isfamily":0},{"id":"2555607345","owner":"11798645@N00","secret":"36d45e90a3","server":"3153","farm":4,"title":"I met Heather B Armstrong of dooce.com","ispublic":1,"isfriend":0,"isfamily":0},{"id":"29781543238","owner":"66926252@N07","secret":"60e38735e8","server":"854","farm":1,"title":"Rock Layers","ispublic":1,"isfriend":0,"isfamily":0},{"id":"29216404078","owner":"30972087@N08","secret":"c1bb90d3d9","server":"1810","farm":2,"title":"In Canyons 246","ispublic":1,"isfriend":0,"isfamily":0},{"id":"39673418414","owner":"23021708@N04","secret":"9d3062ac75","server":"4660","farm":5,"title":"COLORS ARE THE SMILES OF NATURE","ispublic":1,"isfriend":0,"isfamily":0},{"id":"32685087300","owner":"13983694@N06","secret":"182d3af505","server":"584","farm":1,"title":"Dead Horse Point","ispublic":1,"isfriend":0,"isfamily":0},{"id":"27213769551","owner":"46578714@N05","secret":"f440a35409","server":"7401","farm":8,"title":"Utah Beach , monument du d\\u00e9barquement de la 2\\u00e8me DB du g\\u00e9n\\u00e9ral Leclerc","ispublic":1,"isfriend":0,"isfamily":0},{"id":"26253946794","owner":"14018394@N03","secret":"b6501054ff","server":"7331","farm":8,"title":"Delicate Arch","ispublic":1,"isfriend":0,"isfamily":0},{"id":"18889631462","owner":"37791930@N05","secret":"60412f4f48","server":"3750","farm":4,"title":"Sunrise in Monument Valley","ispublic":1,"isfriend":0,"isfamily":0},{"id":"15605707828","owner":"127626365@N08","secret":"2a4bc6444b","server":"5603","farm":6,"title":"Dead tree in desert","ispublic":1,"isfriend":0,"isfamily":0},{"id":"14543979338","owner":"66926252@N07","secret":"8c622a7c38","server":"3925","farm":4,"title":"Dead Horse Point","ispublic":1,"isfriend":0,"isfamily":0},{"id":"14491594650","owner":"97623054@N05","secret":"8d265dc4f6","server":"5571","farm":6,"title":"Beautiful Bryce Canyon, Utah","ispublic":1,"isfriend":0,"isfamily":0},{"id":"9790388844","owner":"57710317@N02","secret":"2222ef071d","server":"5346","farm":6,"title":"Adrian running the Big Cottonwood Canyon Marathon 4","ispublic":1,"isfriend":0,"isfamily":0},{"id":"9495264978","owner":"62621177@N02","secret":"d8b05c39cc","server":"7288","farm":8,"title":"Arches National Park, Utah, 2013.","ispublic":1,"isfriend":0,"isfamily":0},{"id":"8086057973","owner":"24673238@N07","secret":"25429f4325","server":"8183","farm":9,"title":"Ford Raptor SVT","ispublic":1,"isfriend":0,"isfamily":0},{"id":"7405401776","owner":"51035555243@N01","secret":"ecba8436fc","server":"8026","farm":9,"title":"Explosion of Love","ispublic":1,"isfriend":0,"isfamily":0},{"id":"7260028292","owner":"51035555243@N01","secret":"18b81cf445","server":"7095","farm":8,"title":"Lost in Another Time and Place","ispublic":1,"isfriend":0,"isfamily":0},{"id":"7126455787","owner":"51035555243@N01","secret":"b7ab957a91","server":"7127","farm":8,"title":"So Far Away","ispublic":1,"isfriend":0,"isfamily":0},{"id":"6946665905","owner":"43016292@N07","secret":"8658db8394","server":"7062","farm":8,"title":"USA \\/\\/ Utah \\/\\/ Zion Nationalpark \\/\\/ Virgin River","ispublic":1,"isfriend":0,"isfamily":0},{"id":"4433176185","owner":"28283328@N04","secret":"07470c502a","server":"2730","farm":3,"title":"Monolithic Spires","ispublic":1,"isfriend":0,"isfamily":0},{"id":"3692477116","owner":"97211637@N00","secret":"f509bf42a5","server":"3637","farm":4,"title":"The Wonders of the Subway","ispublic":1,"isfriend":0,"isfamily":0},{"id":"3288897345","owner":"35312474@N00","secret":"68e3de4b40","server":"3505","farm":4,"title":"Antelope Island at Sunset","ispublic":1,"isfriend":0,"isfamily":0},{"id":"42740121935","owner":"51035555243@N01","secret":"41aab5c284","server":"856","farm":1,"title":"And Baby You\'re All That I Want","ispublic":1,"isfriend":0,"isfamily":0},{"id":"29740761728","owner":"30972087@N08","secret":"cb6336b417","server":"838","farm":1,"title":"In Canyons 254","ispublic":1,"isfriend":0,"isfamily":0},{"id":"43604757141","owner":"144194136@N08","secret":"d2b11ef854","server":"840","farm":1,"title":"Helluva Place to Lose a Cow","ispublic":1,"isfriend":0,"isfamily":0},{"id":"42697368285","owner":"51035555243@N01","secret":"95b6613697","server":"930","farm":1,"title":"Cathedral of the Madeleine","ispublic":1,"isfriend":0,"isfamily":0},{"id":"42694699625","owner":"110307689@N03","secret":"8e1686824a","server":"929","farm":1,"title":"_DSC4632a","ispublic":1,"isfriend":0,"isfamily":0},{"id":"41781277340","owner":"30972087@N08","secret":"170f094144","server":"836","farm":1,"title":"In Canyons 253","ispublic":1,"isfriend":0,"isfamily":0},{"id":"43531599072","owner":"11961261@N07","secret":"a36a68ec61","server":"935","farm":1,"title":"Canyonlands_6677","ispublic":1,"isfriend":0,"isfamily":0},{"id":"29700455278","owner":"20905078@N04","secret":"2c727c9623","server":"840","farm":1,"title":"","ispublic":1,"isfriend":0,"isfamily":0},{"id":"42852627424","owner":"144194136@N08","secret":"5d4d3fe73e","server":"843","farm":1,"title":"National Geographic","ispublic":1,"isfriend":0,"isfamily":0},{"id":"28681985587","owner":"20905078@N04","secret":"482fa06df3","server":"833","farm":1,"title":"","ispublic":1,"isfriend":0,"isfamily":0},{"id":"43520144522","owner":"66926252@N07","secret":"a490c6aa3e","server":"915","farm":1,"title":"Monument Basin Rainbow","ispublic":1,"isfriend":0,"isfamily":0},{"id":"28669364817","owner":"51035555243@N01","secret":"4c801bd84f","server":"930","farm":1,"title":"Festival of Colors, Spanish Fork, UT","ispublic":1,"isfriend":0,"isfamily":0},{"id":"43549851821","owner":"20905078@N04","secret":"2a4a46782a","server":"1802","farm":2,"title":"","ispublic":1,"isfriend":0,"isfamily":0},{"id":"43532541391","owner":"20905078@N04","secret":"626b096f36","server":"1824","farm":2,"title":"","ispublic":1,"isfriend":0,"isfamily":0},{"id":"41721003780","owner":"20905078@N04","secret":"a4262e5e6c","server":"926","farm":1,"title":"","ispublic":1,"isfriend":0,"isfamily":0},{"id":"42624243825","owner":"20905078@N04","secret":"5f59c684ae","server":"852","farm":1,"title":"","ispublic":1,"isfriend":0,"isfamily":0},{"id":"28631515577","owner":"15055578@N06","secret":"7bdc4173dd","server":"849","farm":1,"title":"Western Grebe and her Chick.....6O3A7543A","ispublic":1,"isfriend":0,"isfamily":0},{"id":"43514000171","owner":"66847065@N00","secret":"f921992e25","server":"1762","farm":2,"title":"Sunset on the Weber","ispublic":1,"isfriend":0,"isfamily":0},{"id":"28621058557","owner":"126251698@N03","secret":"9271657ac4","server":"1786","farm":2,"title":"Utah State Capitol, 350 State Street, Salt Lake City, Utah, USA \\/ Architect: Richard K.A. Kletting \\/ Completed: 1916 \\/ Height:285 ft (87 m) (dome) \\/ Floor count: 5 \\/ Architectural styles: Corinthian order, Neoclassical architecture","ispublic":1,"isfriend":0,"isfamily":0},{"id":"43459980662","owner":"126251698@N03","secret":"f0a95d7e89","server":"1766","farm":2,"title":"Utah State Capitol, 350 State Street, Salt Lake City, Utah, USA \\/ Architect: Richard K.A. Kletting \\/ Completed: 1916 \\/ Height:285 ft (87 m) (dome) \\/ Floor count: 5 \\/ Architectural styles: Corinthian order, Neoclassical architecture","ispublic":1,"isfriend":0,"isfamily":0},{"id":"43459825902","owner":"66926252@N07","secret":"07382ca82a","server":"837","farm":1,"title":"Gleaming Needles","ispublic":1,"isfriend":0,"isfamily":0},{"id":"43459743532","owner":"126251698@N03","secret":"295bc9d6a2","server":"924","farm":1,"title":"Utah State Capitol, 350 State Street, Salt Lake City, Utah, USA \\/ Architect: Richard K.A. Kletting \\/ Completed: 1916 \\/ Height:285 ft (87 m) (dome) \\/ Floor count: 5 \\/ Architectural styles: Corinthian order, Neoclassical architecture","ispublic":1,"isfriend":0,"isfamily":0},{"id":"42602715395","owner":"126251698@N03","secret":"cd3b5af4e8","server":"1829","farm":2,"title":"Utah State Capitol, 350 State Street, Salt Lake City, Utah, USA \\/ Architect: Richard K.A. Kletting \\/ Completed: 1916 \\/ Height:285 ft (87 m) (dome) \\/ Floor count: 5 \\/ Architectural styles: Corinthian order, Neoclassical architecture","ispublic":1,"isfriend":0,"isfamily":0},{"id":"28620545087","owner":"30972087@N08","secret":"5cfef9ec91","server":"928","farm":1,"title":"In Canyons 252","ispublic":1,"isfriend":0,"isfamily":0},{"id":"43459370172","owner":"126251698@N03","secret":"c8f0408915","server":"1781","farm":2,"title":"Utah State Capitol, 350 State Street, Salt Lake City, Utah, USA \\/ Architect: Richard K.A. Kletting \\/ Completed: 1916 \\/ Height:285 ft (87 m) (dome) \\/ Floor count: 5 \\/ Architectural styles: Corinthian order, Neoclassical architecture","ispublic":1,"isfriend":0,"isfamily":0},{"id":"28619974177","owner":"51035555243@N01","secret":"e8e6800d3f","server":"1787","farm":2,"title":"Utopia","ispublic":1,"isfriend":0,"isfamily":0},{"id":"43452837952","owner":"68678468@N06","secret":"e6a775b877","server":"853","farm":1,"title":"virgin narrows","ispublic":1,"isfriend":0,"isfamily":0},{"id":"42781352634","owner":"126251698@N03","secret":"20efd57bac","server":"1821","farm":2,"title":"Utah State Capitol, 350 State Street, Salt Lake City, Utah, USA \\/ Architect: Richard K.A. Kletting \\/ Completed: 1916 \\/ Height:285 ft (87 m) (dome) \\/ Floor count: 5 \\/ Architectural styles: Corinthian order, Neoclassical architecture","ispublic":1,"isfriend":0,"isfamily":0},{"id":"41688476390","owner":"43669425@N04","secret":"37a7e64f69","server":"840","farm":1,"title":"Monument Valley","ispublic":1,"isfriend":0,"isfamily":0},{"id":"28580320657","owner":"138752302@N05","secret":"eeac61bd10","server":"1827","farm":2,"title":"*Fascination Southwest*","ispublic":1,"isfriend":0,"isfamily":0},{"id":"43465957441","owner":"91607644@N07","secret":"eb68f30f94","server":"1802","farm":2,"title":"One Million to One","ispublic":1,"isfriend":0,"isfamily":0},{"id":"41652835170","owner":"130345501@N04","secret":"9d5499797d","server":"1788","farm":2,"title":"UTAH - COTTONWOOD CANYON ROAD","ispublic":1,"isfriend":0,"isfamily":0},{"id":"41636994700","owner":"91607644@N07","secret":"55b961c5c1","server":"1805","farm":2,"title":"Wetlands","ispublic":1,"isfriend":0,"isfamily":0},{"id":"43375882832","owner":"30972087@N08","secret":"43c42e9fb4","server":"1783","farm":2,"title":"In Canyons 251","ispublic":1,"isfriend":0,"isfamily":0},{"id":"28537778327","owner":"72616463@N00","secret":"8f3110e981","server":"834","farm":1,"title":"20160823_5 Me at Goosenecks Canyon, Utah","ispublic":1,"isfriend":0,"isfamily":0},{"id":"41574907050","owner":"54683012@N04","secret":"5a8a443d31","server":"1787","farm":2,"title":"Ekker framed and garnished","ispublic":1,"isfriend":0,"isfamily":0},{"id":"42666039744","owner":"61943224@N04","secret":"8789236742","server":"1783","farm":2,"title":"Bryce Canyon - Into The Valley (Explored, 13 Jul 2018, #472)","ispublic":1,"isfriend":0,"isfamily":0},{"id":"28477743617","owner":"50446746@N02","secret":"bf59c18ff4","server":"1807","farm":2,"title":"Under the Bridge Landscape","ispublic":1,"isfriend":0,"isfamily":0},{"id":"28476208677","owner":"78681559@N04","secret":"80098f95e8","server":"1808","farm":2,"title":"Ranch Country of Central Utah","ispublic":1,"isfriend":0,"isfamily":0},{"id":"28472755727","owner":"10176784@N02","secret":"7c6811bdea","server":"926","farm":1,"title":"Cathedral Valley Overlook","ispublic":1,"isfriend":0,"isfamily":0},{"id":"29470811218","owner":"91607644@N07","secret":"0daf8aee46","server":"835","farm":1,"title":"Dandelion Field","ispublic":1,"isfriend":0,"isfamily":0},{"id":"42426795315","owner":"86423215@N00","secret":"48cf11c29e","server":"922","farm":1,"title":"Capitol Reef National Park, Utah","ispublic":1,"isfriend":0,"isfamily":0},{"id":"28456208197","owner":"93512100@N08","secret":"f2166c8e58","server":"1768","farm":2,"title":"Ship Rock, Arches National Park","ispublic":1,"isfriend":0,"isfamily":0},{"id":"29451314478","owner":"30972087@N08","secret":"3c48f82e20","server":"1790","farm":2,"title":"In Canyons 249","ispublic":1,"isfriend":0,"isfamily":0},{"id":"42590452184","owner":"54683012@N04","secret":"820a9eaece","server":"917","farm":1,"title":"Two Hares, Part 1: Run Rabbit Run","ispublic":1,"isfriend":0,"isfamily":0},{"id":"43300977211","owner":"24783612@N08","secret":"4ae75359ed","server":"1805","farm":2,"title":"_IMG4752_3","ispublic":1,"isfriend":0,"isfamily":0},{"id":"43297380531","owner":"91607644@N07","secret":"e2f8ce82a5","server":"1785","farm":2,"title":"Washed Up","ispublic":1,"isfriend":0,"isfamily":0},{"id":"29427079148","owner":"51035555243@N01","secret":"5fd394e1e6","server":"927","farm":1,"title":"Salt Lake Temple","ispublic":1,"isfriend":0,"isfamily":0},{"id":"42370046695","owner":"91607644@N07","secret":"842a66fba7","server":"1808","farm":2,"title":"Frary Peak","ispublic":1,"isfriend":0,"isfamily":0},{"id":"43220444772","owner":"51035555243@N01","secret":"2212818571","server":"918","farm":1,"title":"Salt Lake City","ispublic":1,"isfriend":0,"isfamily":0},{"id":"28390230127","owner":"9079028@N02","secret":"cafee3e36f","server":"917","farm":1,"title":"DSC07419","ispublic":1,"isfriend":0,"isfamily":0},{"id":"41446820860","owner":"30972087@N08","secret":"7189b6151f","server":"922","farm":1,"title":"In Canyons 248","ispublic":1,"isfriend":0,"isfamily":0},{"id":"42535704904","owner":"91607644@N07","secret":"29e1574c9a","server":"833","farm":1,"title":"The Provo Flow","ispublic":1,"isfriend":0,"isfamily":0},{"id":"42341779055","owner":"126251698@N03","secret":"6ee08fe8cf","server":"838","farm":1,"title":"Statue of Brigham Young, Utah State Capitol, 350 State Street, Salt Lake City, Utah, USA \\/ Architect: Richard K.A. Kletting \\/ Built: 1916 \\/ Height: 285 ft (87 m) (dome) \\/ Floor count: 5 \\/ Architectural styles: Corinthian order, Neoclassical architecture","ispublic":1,"isfriend":0,"isfamily":0},{"id":"43245612141","owner":"126251698@N03","secret":"26dab54521","server":"833","farm":1,"title":"Statue of Brigham Young, Utah State Capitol, 350 State Street, Salt Lake City, Utah, USA \\/ Architect: Richard K.A. Kletting \\/ Built: 1916 \\/ Height: 285 ft (87 m) (dome) \\/ Floor count: 5 \\/ Architectural styles: Corinthian order, Neoclassical architecture","ispublic":1,"isfriend":0,"isfamily":0},{"id":"28369002557","owner":"30972087@N08","secret":"492961752f","server":"836","farm":1,"title":"In Canyons 247","ispublic":1,"isfriend":0,"isfamily":0},{"id":"43187112012","owner":"159070028@N08","secret":"75d49b36b3","server":"919","farm":1,"title":"Sunset Point, Bryce Canyon National Park *A Beautiful Nature*","ispublic":1,"isfriend":0,"isfamily":0},{"id":"43230404521","owner":"126251698@N03","secret":"b6e18af4ba","server":"1767","farm":2,"title":"City of Salt Lake City, Utah, USA","ispublic":1,"isfriend":0,"isfamily":0},{"id":"42324972725","owner":"141542000@N05","secret":"ec1901fd83","server":"840","farm":1,"title":"Monument Valley, Utah\\/Arizona, USA","ispublic":1,"isfriend":0,"isfamily":0},{"id":"43178835482","owner":"91607644@N07","secret":"423952e18a","server":"1807","farm":2,"title":"Someone\'s Best Friend","ispublic":1,"isfriend":0,"isfamily":0},{"id":"43214712871","owner":"126251698@N03","secret":"0df3433500","server":"847","farm":1,"title":"Utah State Capitol, 350 State Street, Salt Lake City, Utah, USA \\/ Architect: Richard K.A. Kletting \\/ Completed: 1916 \\/ Height: 285 ft (87 m) (dome) \\/ Floor count: 5 \\/ Architectural styles: Corinthian order, Neoclassical architecture","ispublic":1,"isfriend":0,"isfamily":0},{"id":"43214705101","owner":"126251698@N03","secret":"955396462f","server":"925","farm":1,"title":"Utah State Capitol, 350 State Street, Salt Lake City, Utah, USA \\/ Architect: Richard K.A. Kletting \\/ Completed: 1916 \\/ Height: 285 ft (87 m) (dome) \\/ Floor count: 5 \\/ Architectural styles: Corinthian order, Neoclassical architecture","ispublic":1,"isfriend":0,"isfamily":0},{"id":"43214700341","owner":"126251698@N03","secret":"ef6ccf2267","server":"1788","farm":2,"title":"Utah State Capitol, 350 State Street, Salt Lake City, Utah, USA \\/ Architect: Richard K.A. Kletting \\/ Completed: 1916 \\/ Height: 285 ft (87 m) (dome) \\/ Floor count: 5 \\/ Architectural styles: Corinthian order, Neoclassical architecture","ispublic":1,"isfriend":0,"isfamily":0},{"id":"42310069535","owner":"126251698@N03","secret":"78eab3d997","server":"833","farm":1,"title":"Utah State Capitol, 350 State Street, Salt Lake City, Utah, USA \\/ Architect: Richard K.A. Kletting \\/ Completed: 1916 \\/ Height: 285 ft (87 m) (dome) \\/ Floor count: 5 \\/ Architectural styles: Corinthian order, Neoclassical architecture","ispublic":1,"isfriend":0,"isfamily":0},{"id":"28344888667","owner":"126251698@N03","secret":"7d8f13c56d","server":"1782","farm":2,"title":"Utah State Capitol, 350 State Street, Salt Lake City, Utah, USA \\/ Architect: Richard K.A. Kletting \\/ Completed: 1916 \\/ Height: 285 ft (87 m) (dome) \\/ Floor count: 5 \\/ Architectural styles: Corinthian order, Neoclassical architecture","ispublic":1,"isfriend":0,"isfamily":0},{"id":"42310059305","owner":"126251698@N03","secret":"94c5f070e2","server":"844","farm":1,"title":"Utah State Capitol, 350 State Street, Salt Lake City, Utah, USA \\/ Architect: Richard K.A. Kletting \\/ Completed: 1916 \\/ Height: 285 ft (87 m) (dome) \\/ Floor count: 5 \\/ Architectural styles: Corinthian order, Neoclassical architecture","ispublic":1,"isfriend":0,"isfamily":0},{"id":"28322390007","owner":"22982057@N03","secret":"ddfbe4a472","server":"915","farm":1,"title":"America the Beautiful! Happy 4th of July!","ispublic":1,"isfriend":0,"isfamily":0},{"id":"41376771050","owner":"91607644@N07","secret":"5b58178675","server":"921","farm":1,"title":"Playing in the Sand","ispublic":1,"isfriend":0,"isfamily":0},{"id":"41362474980","owner":"66926252@N07","secret":"c662d0bf0f","server":"926","farm":1,"title":"Red Rock at Sunset","ispublic":1,"isfriend":0,"isfamily":0},{"id":"43118324662","owner":"91607644@N07","secret":"2f061f0dd4","server":"839","farm":1,"title":"Dragon Lights","ispublic":1,"isfriend":0,"isfamily":0},{"id":"41347560550","owner":"28327815@N08","secret":"e78db3eded","server":"1803","farm":2,"title":"Devil\'s Garden","ispublic":1,"isfriend":0,"isfamily":0},{"id":"43144333911","owner":"91607644@N07","secret":"f0080c1a9f","server":"1784","farm":2,"title":"American Bison","ispublic":1,"isfriend":0,"isfamily":0},{"id":"41317768510","owner":"66926252@N07","secret":"b5c136c285","server":"922","farm":1,"title":"Sandstone and Mud","ispublic":1,"isfriend":0,"isfamily":0},{"id":"43071563232","owner":"91607644@N07","secret":"772c713a5f","server":"844","farm":1,"title":"Kennecott Smelter","ispublic":1,"isfriend":0,"isfamily":0},{"id":"28195991107","owner":"138752302@N05","secret":"e7d8d360ac","server":"927","farm":1,"title":"*Southwest Impressions*","ispublic":1,"isfriend":0,"isfamily":0},{"id":"42993064322","owner":"36914271@N06","secret":"5561cb1d7f","server":"1829","farm":2,"title":"Ford Model T","ispublic":1,"isfriend":0,"isfamily":0},{"id":"41231831870","owner":"30972087@N08","secret":"f28139b7e3","server":"1824","farm":2,"title":"In Canyons 245","ispublic":1,"isfriend":0,"isfamily":0},{"id":"41204852810","owner":"24692873@N07","secret":"f5949a3585","server":"1808","farm":2,"title":"Utah-Arizona (road trip) - 44 (Monument Valley)","ispublic":1,"isfriend":0,"isfamily":0},{"id":"28130610447","owner":"96499116@N06","secret":"7fa7d8dac1","server":"1822","farm":2,"title":"Aerial Speed Demon","ispublic":1,"isfriend":0,"isfamily":0},{"id":"42984017521","owner":"126251698@N03","secret":"6bc4098ea3","server":"1812","farm":2,"title":"Cathedral of the Madeleine, 331 E South Temple Street, Salt Lake City, Utah, USA \\/ Built 1909 \\/Architect: Carl M. Neuhausen & Bernard O. Mecklenburg \\/Architectural Style: Neo-Romanesque (outside) & Neo-Gothic (inside)","ispublic":1,"isfriend":0,"isfamily":0},{"id":"42982934421","owner":"82161892@N00","secret":"2b632e7e8d","server":"880","farm":1,"title":"Zion","ispublic":1,"isfriend":0,"isfamily":0},{"id":"42069119815","owner":"78828135@N05","secret":"56742a2597","server":"1826","farm":2,"title":"Reach","ispublic":1,"isfriend":0,"isfamily":0},{"id":"28096891187","owner":"126251698@N03","secret":"35327222ef","server":"1799","farm":2,"title":"Utah State Capitol, 350 State Street, Salt Lake City, Utah, USA \\/ Architect: Richard K.A. Kletting \\/ Completed: 1916 \\/ Height: 285 ft (87 m) (dome) \\/ Floor count: 5 \\/ Architectural styles: Corinthian order, Neoclassical architecture","ispublic":1,"isfriend":0,"isfamily":0},{"id":"28092973917","owner":"97867800@N08","secret":"226d85a5b2","server":"1814","farm":2,"title":"Summer solstice sunset over the Great Salt Lake","ispublic":1,"isfriend":0,"isfamily":0},{"id":"29086556048","owner":"86423215@N00","secret":"0b78a22d73","server":"1805","farm":2,"title":"Temple of the Sun, Capitol Reef National Park, Utah","ispublic":1,"isfriend":0,"isfamily":0},{"id":"41144011790","owner":"90411943@N00","secret":"882cc19aa5","server":"1789","farm":2,"title":"In search of balance ..","ispublic":1,"isfriend":0,"isfamily":0},{"id":"42232727964","owner":"30972087@N08","secret":"0e6b00a6b8","server":"1802","farm":2,"title":"In Canyons 244","ispublic":1,"isfriend":0,"isfamily":0},{"id":"41140547940","owner":"138752302@N05","secret":"97bf329f2c","server":"879","farm":1,"title":"*Upper Cathedral Valley @ vast country*","ispublic":1,"isfriend":0,"isfamily":0},{"id":"42887600132","owner":"30972087@N08","secret":"8c51816441","server":"1806","farm":2,"title":"In Canyons 243","ispublic":1,"isfriend":0,"isfamily":0},{"id":"41125658580","owner":"126251698@N03","secret":"db10fd27aa","server":"1827","farm":2,"title":"Bonneville Salt Flats, state of Utah, USA","ispublic":1,"isfriend":0,"isfamily":0},{"id":"42201196364","owner":"126251698@N03","secret":"e7bf66a145","server":"1810","farm":2,"title":"Bonneville Salt Flats, state of Utah, USA","ispublic":1,"isfriend":0,"isfamily":0},{"id":"42870694082","owner":"30972087@N08","secret":"e59ebee70a","server":"1826","farm":2,"title":"In Canyons 242","ispublic":1,"isfriend":0,"isfamily":0},{"id":"42870474502","owner":"126251698@N03","secret":"cd476e9bc7","server":"1805","farm":2,"title":"Bonneville Salt Flats, state of Utah, USA","ispublic":1,"isfriend":0,"isfamily":0},{"id":"41109161450","owner":"126251698@N03","secret":"06f94ae2b7","server":"1782","farm":2,"title":"Bonneville Salt Flats, state of Utah, USA","ispublic":1,"isfriend":0,"isfamily":0},{"id":"29046421068","owner":"126251698@N03","secret":"57cfbca6c4","server":"876","farm":1,"title":"Bonneville Salt Flats, state of Utah, USA","ispublic":1,"isfriend":0,"isfamily":0},{"id":"28009448377","owner":"63560086@N02","secret":"04669f2423","server":"1722","farm":2,"title":"Balanced Rock on the Nature Trail in Escalante Petrified Forest State Park","ispublic":1,"isfriend":0,"isfamily":0},{"id":"42159689264","owner":"23691269@N05","secret":"e828943338","server":"1781","farm":2,"title":"DEVILS CANYON OVERLOOK","ispublic":1,"isfriend":0,"isfamily":0},{"id":"42156113944","owner":"94442605@N05","secret":"f73b3f8edf","server":"1741","farm":2,"title":"_D804339-Pano.jpg","ispublic":1,"isfriend":0,"isfamily":0},{"id":"28991449318","owner":"126251698@N03","secret":"a8e9a25eb8","server":"1786","farm":2,"title":"Great Salt Lake, state of Utah, USA","ispublic":1,"isfriend":0,"isfamily":0},{"id":"27985375227","owner":"126251698@N03","secret":"3c101b32e5","server":"1801","farm":2,"title":"Great Salt Lake, state of Utah, USA","ispublic":1,"isfriend":0,"isfamily":0},{"id":"27985123527","owner":"126251698@N03","secret":"94a6915b09","server":"1784","farm":2,"title":"Great Salt Lake, state of Utah, USA","ispublic":1,"isfriend":0,"isfamily":0},{"id":"28980795048","owner":"126251698@N03","secret":"40e7856297","server":"1746","farm":2,"title":"Great Salt Lake, state of Utah, USA","ispublic":1,"isfriend":0,"isfamily":0},{"id":"27976274837","owner":"87786214@N07","secret":"28542683c7","server":"1733","farm":2,"title":"Fisher Towers & the Corkscrew","ispublic":1,"isfriend":0,"isfamily":0},{"id":"27974279777","owner":"86423215@N00","secret":"7eaeb35e4c","server":"1725","farm":2,"title":"Temple of the Sun, Cathedral Valley, Utah","ispublic":1,"isfriend":0,"isfamily":0},{"id":"41029908900","owner":"47256730@N06","secret":"96b1cdf7a9","server":"1808","farm":2,"title":"Summit Goings On.  Explored.  17-06-2018.","ispublic":1,"isfriend":0,"isfamily":0},{"id":"28955786328","owner":"155305969@N03","secret":"6884963e71","server":"1826","farm":2,"title":"Lighting the Milkyway","ispublic":1,"isfriend":0,"isfamily":0},{"id":"42827218551","owner":"40784173@N06","secret":"59df2fabf0","server":"1766","farm":2,"title":"Desert Cloudscape","ispublic":1,"isfriend":0,"isfamily":0},{"id":"41015134850","owner":"110307689@N03","secret":"8954a8b165","server":"1731","farm":2,"title":"A scene from Caynonland National Park","ispublic":1,"isfriend":0,"isfamily":0},{"id":"28948070148","owner":"14175138@N08","secret":"a3c1d350e2","server":"900","farm":1,"title":"UTA 6 | MPI MP36PH-3C | UTA FrontRunner","ispublic":1,"isfriend":0,"isfamily":0},{"id":"41920307415","owner":"14175138@N08","secret":"9f931b0e97","server":"1749","farm":2,"title":"UTA 10 | MPI MP36PH-3C | UTA FrontRunner","ispublic":1,"isfriend":0,"isfamily":0},{"id":"28948069738","owner":"14175138@N08","secret":"c14e31d299","server":"884","farm":1,"title":"UTAH 2001 | EMD GP38-2 | UP North Yard","ispublic":1,"isfriend":0,"isfamily":0},{"id":"28943605218","owner":"29193873@N06","secret":"9ea0d7dbae","server":"1727","farm":2,"title":"Hey Brother! - Wilson Arch, Utah","ispublic":1,"isfriend":0,"isfamily":0},{"id":"42085501754","owner":"86423215@N00","secret":"32be39b059","server":"1732","farm":2,"title":"Teasdale, Utah Sandstone Bluffs.","ispublic":1,"isfriend":0,"isfamily":0},{"id":"42747700152","owner":"14175138@N08","secret":"47cbd86317","server":"1744","farm":2,"title":"UTA 6 | MPI MP36PH-3C | UTA FrontRunner","ispublic":1,"isfriend":0,"isfamily":0},{"id":"40974440140","owner":"62501682@N00","secret":"5af76f83e3","server":"1737","farm":2,"title":"The Milky Way over Valley of the Gods near Bluff, Utah","ispublic":1,"isfriend":0,"isfamily":0},{"id":"42729832842","owner":"14175138@N08","secret":"c10a9ec3a5","server":"1758","farm":2,"title":"UTA 4 | MPI MP36PH-3C | UTA FrontRunner","ispublic":1,"isfriend":0,"isfamily":0},{"id":"41857962475","owner":"63560086@N02","secret":"3589dc0333","server":"895","farm":1,"title":"A Huge Piece of Petrified Wood, Escalante Petrified Forest State Park UT","ispublic":1,"isfriend":0,"isfamily":0},{"id":"41854709085","owner":"56597497@N06","secret":"cb0404686f","server":"883","farm":1,"title":"Cow Canyon","ispublic":1,"isfriend":0,"isfamily":0},{"id":"27846946367","owner":"138752302@N05","secret":"82681f027d","server":"1740","farm":2,"title":"*Lone Rock @ golden hour*","ispublic":1,"isfriend":0,"isfamily":0},{"id":"42714078731","owner":"94442605@N05","secret":"74ae0b230a","server":"1750","farm":2,"title":"DSC_1049-Pano.jpg","ispublic":1,"isfriend":0,"isfamily":0},{"id":"28826386908","owner":"51035555243@N01","secret":"91e049f25b","server":"1753","farm":2,"title":"Once You\'ve Had the Best","ispublic":1,"isfriend":0,"isfamily":0},{"id":"27824932377","owner":"46897148@N02","secret":"d93175fcaf","server":"1732","farm":2,"title":"D200 BC 3 (22)e ~ Bryce Canyon National Park","ispublic":1,"isfriend":0,"isfamily":0},{"id":"41974605284","owner":"30972087@N08","secret":"e2963a7dd5","server":"1737","farm":2,"title":"In Canyons 239","ispublic":1,"isfriend":0,"isfamily":0},{"id":"28810652788","owner":"62501682@N00","secret":"af0facd53b","server":"1725","farm":2,"title":"Milky Way over Mexican Hat Rock, Utah","ispublic":1,"isfriend":0,"isfamily":0},{"id":"27789251027","owner":"8398907@N02","secret":"830c78dbc2","server":"1751","farm":2,"title":"Canyon walls Zion National Park","ispublic":1,"isfriend":0,"isfamily":0},{"id":"40843985730","owner":"42108906@N04","secret":"5ebdc20caa","server":"1739","farm":2,"title":"Canyonlands","ispublic":1,"isfriend":0,"isfamily":0},{"id":"27773213417","owner":"91607644@N07","secret":"e195f15389","server":"1725","farm":2,"title":"Tranquil","ispublic":1,"isfriend":0,"isfamily":0},{"id":"41915726414","owner":"24692873@N07","secret":"2e1cd7e28f","server":"1728","farm":2,"title":"Utah-Arizona (road trip) - 40 (Arches)","ispublic":1,"isfriend":0,"isfamily":0},{"id":"40813307520","owner":"62501682@N00","secret":"9ea966df88","server":"1740","farm":2,"title":"The Milky Way over the Colorado River at Middle Drinks Canyon near Moab, Utah","ispublic":1,"isfriend":0,"isfamily":0},{"id":"28745554358","owner":"87786214@N07","secret":"d39a9242f7","server":"1754","farm":2,"title":"Fisher Towers from Top of the World","ispublic":1,"isfriend":0,"isfamily":0},{"id":"42566395192","owner":"51035555243@N01","secret":"019918bfe0","server":"1746","farm":2,"title":"Salt Lake City","ispublic":1,"isfriend":0,"isfamily":0},{"id":"41716590205","owner":"51035555243@N01","secret":"608bb92078","server":"1738","farm":2,"title":"If I Won A Dollar I\'d Make it Rain","ispublic":1,"isfriend":0,"isfamily":0},{"id":"42565412602","owner":"91607644@N07","secret":"4458897fe5","server":"1760","farm":2,"title":"The Meadow","ispublic":1,"isfriend":0,"isfamily":0},{"id":"41860077424","owner":"91607644@N07","secret":"625c5c6ac5","server":"1730","farm":2,"title":"Spring Runoff","ispublic":1,"isfriend":0,"isfamily":0},{"id":"42525890442","owner":"53261426@N07","secret":"e99ae7f97f","server":"1727","farm":2,"title":"the sea and the sky","ispublic":1,"isfriend":0,"isfamily":0},{"id":"42561514251","owner":"63560086@N02","secret":"55d507920e","server":"1744","farm":2,"title":"Queen Nefertiti Rock on the Park Avenue Trail in Arches National Park","ispublic":1,"isfriend":0,"isfamily":0},{"id":"42560367871","owner":"67836612@N03","secret":"66180bdd92","server":"1740","farm":2,"title":"Majestic Monuments","ispublic":1,"isfriend":0,"isfamily":0},{"id":"42506051702","owner":"91607644@N07","secret":"c7cd3332de","server":"1725","farm":2,"title":"Spring Thaw","ispublic":1,"isfriend":0,"isfamily":0},{"id":"41822532904","owner":"79571287@N02","secret":"eac16bf47c","server":"1740","farm":2,"title":"Canyonlands Sunset","ispublic":1,"isfriend":0,"isfamily":0},{"id":"42489885632","owner":"86423215@N00","secret":"b05985cebe","server":"1753","farm":2,"title":"Temple of the Moon, Cathedral Valley, Utah","ispublic":1,"isfriend":0,"isfamily":0},{"id":"42535695051","owner":"91607644@N07","secret":"3e81f14d45","server":"1723","farm":2,"title":"Morning Splash","ispublic":1,"isfriend":0,"isfamily":0},{"id":"27650519777","owner":"40586164@N07","secret":"0a4c712cf1","server":"1727","farm":2,"title":"Rainbow Bridge","ispublic":1,"isfriend":0,"isfamily":0},{"id":"27646308287","owner":"34457823@N04","secret":"6b3e1af2a9","server":"1753","farm":2,"title":"Life on the Edge","ispublic":1,"isfriend":0,"isfamily":0},{"id":"41793219134","owner":"30972087@N08","secret":"6a95e19b0f","server":"1753","farm":2,"title":"In Canyons 237","ispublic":1,"isfriend":0,"isfamily":0},{"id":"27624789427","owner":"59941010@N06","secret":"b9ded79214","server":"1757","farm":2,"title":"H\\u00e1go\\u00f3nee\\u2019 I\'ll leave a little of me here","ispublic":1,"isfriend":0,"isfamily":0},{"id":"27622930327","owner":"91607644@N07","secret":"c3b379d9ec","server":"1728","farm":2,"title":"Bald Mountain","ispublic":1,"isfriend":0,"isfamily":0},{"id":"27618249467","owner":"141542000@N05","secret":"6b7ff1c1ec","server":"1756","farm":2,"title":"Bryce Canyon National Park, Utah, USA","ispublic":1,"isfriend":0,"isfamily":0},{"id":"41582725525","owner":"42922649@N00","secret":"0993c9d84d","server":"1740","farm":2,"title":"Tree and Hoodoos","ispublic":1,"isfriend":0,"isfamily":0},{"id":"41581420905","owner":"54683012@N04","secret":"2d1cd1bbb4","server":"1758","farm":2,"title":"Happy DYC Day","ispublic":1,"isfriend":0,"isfamily":0},{"id":"41760575834","owner":"86423215@N00","secret":"0490cb8d0b","server":"1745","farm":2,"title":"Cathedral Valley, Capitol Reef National Park, Utah","ispublic":1,"isfriend":0,"isfamily":0},{"id":"28602826168","owner":"59941010@N06","secret":"c82a9e7149","server":"1735","farm":2,"title":"where westerns were made","ispublic":1,"isfriend":0,"isfamily":0},{"id":"41750544644","owner":"91607644@N07","secret":"602d344673","server":"1748","farm":2,"title":"End of May and End of Winter","ispublic":1,"isfriend":0,"isfamily":0},{"id":"42467033911","owner":"8398907@N02","secret":"1ba67f63bd","server":"1731","farm":2,"title":"Virgin River Zion National Park","ispublic":1,"isfriend":0,"isfamily":0},{"id":"42466893791","owner":"8310992@N04","secret":"c28401d47c","server":"886","farm":1,"title":"Grayer in the Light of Day","ispublic":1,"isfriend":0,"isfamily":0},{"id":"42404702892","owner":"63560086@N02","secret":"d17f6d8919","server":"1721","farm":2,"title":"Close-up, Turret Arch at Arches National Park, Utah","ispublic":1,"isfriend":0,"isfamily":0},{"id":"42401286472","owner":"91607644@N07","secret":"443ce1ffe2","server":"901","farm":1,"title":"Thawing","ispublic":1,"isfriend":0,"isfamily":0},{"id":"27580569717","owner":"14175138@N08","secret":"44790205b2","server":"1748","farm":2,"title":"Utah Highway 73 | Utah","ispublic":1,"isfriend":0,"isfamily":0},{"id":"41727163584","owner":"133461395@N08","secret":"d26e9f20c0","server":"1729","farm":2,"title":"Checkerboard Mesa","ispublic":1,"isfriend":0,"isfamily":0},{"id":"41720119694","owner":"54281175@N07","secret":"d1f3338951","server":"902","farm":1,"title":"Hiking Trail","ispublic":1,"isfriend":0,"isfamily":0},{"id":"40634811240","owner":"34457823@N04","secret":"921881da44","server":"1724","farm":2,"title":"Dead Horse Tree","ispublic":1,"isfriend":0,"isfamily":0},{"id":"41537842655","owner":"24692873@N07","secret":"d5ef6e04c8","server":"889","farm":1,"title":"Utah-Arizona (road trip) - 35 (Canyonlands)","ispublic":1,"isfriend":0,"isfamily":0},{"id":"41706743154","owner":"91607644@N07","secret":"16eb353dd3","server":"1749","farm":2,"title":"Mini Falls","ispublic":1,"isfriend":0,"isfamily":0},{"id":"28534920508","owner":"91607644@N07","secret":"a3f36d908b","server":"1728","farm":2,"title":"Trial Lake Thawing","ispublic":1,"isfriend":0,"isfamily":0},{"id":"41668519354","owner":"38118822@N07","secret":"72879ce2da","server":"1732","farm":2,"title":"The Fist In The Foliage","ispublic":1,"isfriend":0,"isfamily":0},{"id":"40578026170","owner":"30972087@N08","secret":"50b3c24308","server":"1729","farm":2,"title":"In Canyons 234","ispublic":1,"isfriend":0,"isfamily":0},{"id":"41472269035","owner":"8381221@N05","secret":"64103ba0c8","server":"897","farm":1,"title":"Utah Capitol Building","ispublic":1,"isfriend":0,"isfamily":0},{"id":"28501660768","owner":"59941010@N06","secret":"e98a5b5e48","server":"1745","farm":2,"title":"Navajo Culture","ispublic":1,"isfriend":0,"isfamily":0},{"id":"28494838048","owner":"29193873@N06","secret":"afec7d4c4f","server":"1736","farm":2,"title":"Sunrise at Capital Reef National Park, Utah","ispublic":1,"isfriend":0,"isfamily":0},{"id":"42367128991","owner":"63560086@N02","secret":"2f21b3a23e","server":"885","farm":1,"title":"The Famous Double Arch of Arches National Park in Utah","ispublic":1,"isfriend":0,"isfamily":0},{"id":"42366327431","owner":"8381221@N05","secret":"eeb65b8f83","server":"890","farm":1,"title":"Temple Square","ispublic":1,"isfriend":0,"isfamily":0},{"id":"42361947201","owner":"91607644@N07","secret":"5b9f281fea","server":"1741","farm":2,"title":"Under the Canopy","ispublic":1,"isfriend":0,"isfamily":0},{"id":"41635228074","owner":"127114259@N08","secret":"76de431e92","server":"873","farm":1,"title":"Quiet Rapture","ispublic":1,"isfriend":0,"isfamily":0},{"id":"41634410044","owner":"40784173@N06","secret":"bdd0a450ef","server":"1749","farm":2,"title":"Bridge Over the Desert","ispublic":1,"isfriend":0,"isfamily":0},{"id":"41633726284","owner":"23939795@N04","secret":"14ce158591","server":"1760","farm":2,"title":"Yellow-headed Blackbird 5591","ispublic":1,"isfriend":0,"isfamily":0},{"id":"27478820787","owner":"8381221@N05","secret":"714884c8da","server":"1722","farm":2,"title":"Desert","ispublic":1,"isfriend":0,"isfamily":0},{"id":"41440752565","owner":"91607644@N07","secret":"82e3406e9d","server":"1758","farm":2,"title":"Utah Capitol \\u2013 Long View","ispublic":1,"isfriend":0,"isfamily":0},{"id":"28468980328","owner":"54683012@N04","secret":"07bc0b394f","server":"1740","farm":2,"title":"Beauty in the Beast?","ispublic":1,"isfriend":0,"isfamily":0},{"id":"42341895941","owner":"51035555243@N01","secret":"d7ee97079e","server":"885","farm":1,"title":"Eyes to Laugh and Lips to Cry","ispublic":1,"isfriend":0,"isfamily":0},{"id":"27465184577","owner":"23939795@N04","secret":"a3a7f73e49","server":"1757","farm":2,"title":"White-faced Ibis 5811","ispublic":1,"isfriend":0,"isfamily":0},{"id":"7082667945","owner":"24396706@N08","secret":"954c9fd73e","server":"7101","farm":8,"title":"Matching bottoms","ispublic":1,"isfriend":0,"isfamily":0},{"id":"2076104910","owner":"80651083@N00","secret":"d4b308fabd","server":"2139","farm":3,"title":"Salt Lake Temple","ispublic":1,"isfriend":0,"isfamily":0},{"id":"34814043683","owner":"14572247@N07","secret":"67ce4f77b9","server":"4258","farm":5,"title":"Pronghorn Portrait","ispublic":1,"isfriend":0,"isfamily":0},{"id":"35186325116","owner":"62741243@N04","secret":"80134a10e5","server":"4234","farm":5,"title":"Queens Garden Trail","ispublic":1,"isfriend":0,"isfamily":0},{"id":"33462100724","owner":"10725258@N00","secret":"0a316384da","server":"2892","farm":3,"title":"up & down","ispublic":1,"isfriend":0,"isfamily":0},{"id":"33780433766","owner":"93824252@N02","secret":"491d1426e3","server":"3950","farm":4,"title":"Bryce Canyon, Utah","ispublic":1,"isfriend":0,"isfamily":0},{"id":"31139190895","owner":"131619154@N06","secret":"156abd4dca","server":"5829","farm":6,"title":"Moon Lily","ispublic":1,"isfriend":0,"isfamily":0},{"id":"29310479700","owner":"47881347@N00","secret":"56671ca595","server":"8488","farm":9,"title":"Canyonlands Juniper -- Color","ispublic":1,"isfriend":0,"isfamily":0},{"id":"28916851291","owner":"130345501@N04","secret":"a6c0758653","server":"8820","farm":9,"title":"Le Colorado aux environs de Moab","ispublic":1,"isfriend":0,"isfamily":0},{"id":"27210629672","owner":"86693975@N00","secret":"a0fbd04f12","server":"7367","farm":8,"title":"Spring Storm Green River Overlook","ispublic":1,"isfriend":0,"isfamily":0},{"id":"19999625460","owner":"49420056@N03","secret":"8927cbbb51","server":"362","farm":1,"title":"Monument Valley highway","ispublic":1,"isfriend":0,"isfamily":0},{"id":"18583135572","owner":"68313863@N05","secret":"92742a1324","server":"8883","farm":9,"title":"Balanced Rock","ispublic":1,"isfriend":0,"isfamily":0},{"id":"17327332753","owner":"11588396@N03","secret":"b6cff768d4","server":"8853","farm":9,"title":"12 Years Ago: Boulder Mail Trail","ispublic":1,"isfriend":0,"isfamily":0},{"id":"16770458481","owner":"27883541@N00","secret":"a6df071f42","server":"8635","farm":9,"title":"Cliffs before the storm","ispublic":1,"isfriend":0,"isfamily":0},{"id":"16491585320","owner":"30506799@N05","secret":"edd74a362d","server":"8582","farm":9,"title":"Hunt You Down","ispublic":1,"isfriend":0,"isfamily":0},{"id":"16014498392","owner":"36030103@N07","secret":"5ab2385f3e","server":"7580","farm":8,"title":"Dead Horse Point 2","ispublic":1,"isfriend":0,"isfamily":0},{"id":"11961236835","owner":"27263572@N05","secret":"d3fe50dfc3","server":"7404","farm":8,"title":"good morning bryce","ispublic":1,"isfriend":0,"isfamily":0},{"id":"11911505603","owner":"34085095@N07","secret":"be51ea314d","server":"3698","farm":4,"title":"Monument Valley, Arizona-Utah border","ispublic":1,"isfriend":0,"isfamily":0},{"id":"11286913004","owner":"59682423@N00","secret":"0eb73cd619","server":"3759","farm":4,"title":"Along the banks of the San Juan River, Bluff UT","ispublic":1,"isfriend":0,"isfamily":0},{"id":"10069934355","owner":"28327815@N08","secret":"0c5482611b","server":"3755","farm":4,"title":"Hoodoos","ispublic":1,"isfriend":0,"isfamily":0},{"id":"9625990392","owner":"39925737@N07","secret":"31c99a575e","server":"5480","farm":6,"title":"Delicate Arch","ispublic":1,"isfriend":0,"isfamily":0},{"id":"9302667306","owner":"36672122@N05","secret":"d3abf21016","server":"3719","farm":4,"title":"Before the night","ispublic":1,"isfriend":0,"isfamily":0},{"id":"8211492732","owner":"56368393@N07","secret":"6b6ddf6f29","server":"8210","farm":9,"title":"Fall Colors on Mt. Timpanogos","ispublic":1,"isfriend":0,"isfamily":0},{"id":"8188772926","owner":"26712459@N07","secret":"6e80b60887","server":"8197","farm":9,"title":"The light in the Arch","ispublic":1,"isfriend":0,"isfamily":0},{"id":"8096253515","owner":"88123769@N02","secret":"f937001267","server":"8465","farm":9,"title":"Rainbow Bridge.National Monument (1)","ispublic":1,"isfriend":0,"isfamily":0},{"id":"7004612305","owner":"17103696@N07","secret":"057b6938f0","server":"7228","farm":8,"title":"Calf Creek Slide","ispublic":1,"isfriend":0,"isfamily":0},{"id":"6943009119","owner":"44161305@N02","secret":"1a83de874e","server":"7181","farm":8,"title":"73 USA,  agosto 2001","ispublic":1,"isfriend":0,"isfamily":0},{"id":"6641377199","owner":"40585094@N07","secret":"f63b85684b","server":"7161","farm":8,"title":"BRYCE CANYON ... sunrise","ispublic":1,"isfriend":0,"isfamily":0},{"id":"6246484735","owner":"50465763@N05","secret":"f664445ebe","server":"6092","farm":7,"title":"","ispublic":1,"isfriend":0,"isfamily":0},{"id":"5523605352","owner":"45389964@N06","secret":"b840ce583a","server":"5179","farm":6,"title":"Mesa Arch meditation - Canyonlands National Park","ispublic":1,"isfriend":0,"isfamily":0},{"id":"4783109976","owner":"42924936@N00","secret":"49ce4bd701","server":"4136","farm":5,"title":"Virgin River Narrows","ispublic":1,"isfriend":0,"isfamily":0},{"id":"3596919964","owner":"7298460@N03","secret":"18b8b549a5","server":"2455","farm":3,"title":"Flowers overlooking Bear Lake","ispublic":1,"isfriend":0,"isfamily":0},{"id":"2642806145","owner":"26457654@N07","secret":"574cd56eea","server":"3122","farm":4,"title":"Sunset","ispublic":1,"isfriend":0,"isfamily":0},{"id":"2590913019","owner":"16890230@N04","secret":"fe6c5c3484","server":"3067","farm":4,"title":"Stream","ispublic":1,"isfriend":0,"isfamily":0},{"id":"43518036271","owner":"15055578@N06","secret":"de8d60463c","server":"1785","farm":2,"title":"White-faced Ibis in flight...6O3A7496A","ispublic":1,"isfriend":0,"isfamily":0},{"id":"28344893047","owner":"126251698@N03","secret":"41494a7412","server":"919","farm":1,"title":"Utah State Capitol, 350 State Street, Salt Lake City, Utah, USA \\/ Architect: Richard K.A. Kletting \\/ Completed: 1916 \\/ Height: 285 ft (87 m) (dome) \\/ Floor count: 5 \\/ Architectural styles: Corinthian order, Neoclassical architecture","ispublic":1,"isfriend":0,"isfamily":0},{"id":"29063639228","owner":"126251698@N03","secret":"e257d24aff","server":"1831","farm":2,"title":"Salt Lake City International Airport, 776 N Terminal Drive, Salt Lake City, Utah, USA","ispublic":1,"isfriend":0,"isfamily":0},{"id":"42853756561","owner":"126251698@N03","secret":"1238fe0e5a","server":"1770","farm":2,"title":"Great Salt Lake, state of Utah, USA","ispublic":1,"isfriend":0,"isfamily":0},{"id":"27966522017","owner":"138752302@N05","secret":"2a56356f37","server":"1724","farm":2,"title":"*Balanced Rock @ golden hour*","ispublic":1,"isfriend":0,"isfamily":0},{"id":"42766642302","owner":"63560086@N02","secret":"f5f2502937","server":"1736","farm":2,"title":"Slickrock near Scenic Highway 12, Escalante Canyon","ispublic":1,"isfriend":0,"isfamily":0},{"id":"27941712247","owner":"138752302@N05","secret":"34a141b06f","server":"1736","farm":2,"title":"*Wahweap Hoodoos @ golden hour*","ispublic":1,"isfriend":0,"isfamily":0},{"id":"41761440275","owner":"9144561@N03","secret":"87752f2aa1","server":"1735","farm":2,"title":"Mt. Carmel Highway, Zion National Park, UT","ispublic":1,"isfriend":0,"isfamily":0},{"id":"40687683560","owner":"63560086@N02","secret":"b945f77b52","server":"894","farm":1,"title":"La Sal Mountains at Sunset, Arches National Park, Utah","ispublic":1,"isfriend":0,"isfamily":0},{"id":"41732561714","owner":"59941010@N06","secret":"fe6b455d36","server":"1737","farm":2,"title":"John Wayne said \\"saddle up\\"","ispublic":1,"isfriend":0,"isfamily":0},{"id":"28547831528","owner":"59941010@N06","secret":"cdb5f470f8","server":"1722","farm":2,"title":"Navajo Cowboy On Horseback","ispublic":1,"isfriend":0,"isfamily":0},{"id":"40564476180","owner":"8381221@N05","secret":"0a0aacee14","server":"1743","farm":2,"title":"Barn Owls","ispublic":1,"isfriend":0,"isfamily":0},{"id":"42298422252","owner":"63560086@N02","secret":"dfc37df5bf","server":"1730","farm":2,"title":"Double Arch and Cove of Caves at Arches National Park in Utah","ispublic":1,"isfriend":0,"isfamily":0}]},"stat":"ok"}'
p29
sS'encoding'
p30
NsS'url'
p31
Vhttps://api.flickr.com/services/rest/?sort=relevance&has_geo=true&nojsoncallback=1&format=json&tags=salt+lake+city%2C+utah&method=flickr.photos.search&content_type=1&per_page=500&api_key=92cd8d03af0235c7f0301a87dabedb55&page=1&accuracy=10
p32
sS'status_code'
p33
I200
sS'request'
p34
g1
(crequests.models
PreparedRequest
p35
g3
NtRp36
(dp37
S'body'
p38
Nsg31
S'https://api.flickr.com/services/rest/?sort=relevance&has_geo=true&nojsoncallback=1&format=json&tags=salt+lake+city%2C+utah&method=flickr.photos.search&content_type=1&per_page=500&api_key=92cd8d03af0235c7f0301a87dabedb55&page=1&accuracy=10'
p39
sS'hooks'
p40
(dp41
S'response'
p42
(lp43
ssS'headers'
p44
g1
(crequests.structures
CaseInsensitiveDict
p45
g3
NtRp46
(dp47
S'_store'
p48
curllib3.packages.ordered_dict
OrderedDict
p49
((lp50
(lp51
S'connection'
p52
a(S'Connection'
p53
S'keep-alive'
p54
tp55
aa(lp56
S'accept-encoding'
p57
a(S'Accept-Encoding'
p58
S'gzip, deflate'
tp59
aa(lp60
S'accept'
p61
a(S'Accept'
p62
S'*/*'
p63
tp64
aa(lp65
S'user-agent'
p66
a(S'User-Agent'
p67
S'python-requests/2.18.4'
tp68
aatRp69
sbsS'_body_position'
p70
Nsg26
g1
(g7
g3
NtRp71
(dp72
g10
I1532663832
sg11
(icookielib
DefaultCookiePolicy
p73
(dp74
g14
I01
sg15
I0
sg16
Nsg17
Nsg18
I00
sg19
I00
sg10
I1532663832
sg20
I00
sg21
I00
sg22
I00
sg23
I00
sg24
(tsg25
I01
sbsg26
(dp75
sbsS'method'
p76
S'GET'
p77
sbsS'elapsed'
p78
cdatetime
timedelta
p79
(I0
I1
I574483
tRp80
sg44
g1
(g45
g3
NtRp81
(dp82
g48
g49
((lp83
(lp84
S'date'
p85
a(S'Date'
p86
S'Fri, 27 Jul 2018 03:57:14 GMT'
p87
tp88
aa(lp89
S'content-type'
p90
a(S'Content-Type'
p91
S'application/json'
p92
tp93
aa(lp94
S'content-length'
p95
a(S'Content-Length'
p96
S'9859'
p97
tp98
aa(lp99
S'p3p'
p100
a(S'P3P'
p101
S'policyref="https://policies.yahoo.com/w3c/p3p.xml", CP="CAO DSP COR CUR ADM DEV TAI PSA PSD IVAi IVDi CONi TELo OTPi OUR DELi SAMi OTRi UNRi PUBi IND PHY ONL UNI PUR FIN COM NAV INT DEM CNT STA POL HEA PRE LOC GOV"'
p102
tp103
aa(lp104
S'x-content-type-options'
p105
a(S'X-Content-Type-Options'
p106
S'nosniff'
p107
tp108
aa(lp109
S'cache-control'
p110
a(S'Cache-Control'
p111
S'private'
p112
tp113
aa(lp114
S'x-served-by'
p115
a(S'X-Served-By'
p116
S'www-bm005.flickr.bf1.yahoo.com'
p117
tp118
aa(lp119
S'x-frame-options'
p120
a(S'X-Frame-Options'
p121
S'SAMEORIGIN'
p122
tp123
aa(lp124
S'vary'
p125
a(S'Vary'
p126
S'Accept-Encoding'
p127
tp128
aa(lp129
S'content-encoding'
p130
a(S'Content-Encoding'
p131
S'gzip'
p132
tp133
aa(lp134
S'age'
p135
a(S'Age'
p136
S'4'
tp137
aa(lp138
S'via'
p139
a(S'Via'
p140
S'http/1.1 fts112.flickr.bf1.yahoo.com (ApacheTrafficServer [cMsSf ]), http/1.1 e5.ycpi.daa.yahoo.com (ApacheTrafficServer [cMsSf ])'
p141
tp142
aa(lp143
S'server'
p144
a(S'Server'
p145
S'ATS'
p146
tp147
aa(lp148
S'connection'
p149
a(S'Connection'
p150
S'keep-alive'
p151
tp152
aa(lp153
S'strict-transport-security'
p154
a(S'Strict-Transport-Security'
p155
S'max-age=15552000'
p156
tp157
aa(lp158
S'expect-ct'
p159
a(S'Expect-CT'
p160
S'max-age=31536000, report-uri="http://csp.yahoo.com/beacon/csp?src=yahoocom-expect-ct-report-only"'
p161
tp162
aa(lp163
S'public-key-pins-report-only'
p164
a(S'Public-Key-Pins-Report-Only'
p165
S'max-age=2592000; pin-sha256="2fRAUXyxl4A1/XHrKNBmc8bTkzA7y4FB/GLJuNAzCqY="; pin-sha256="2oALgLKofTmeZvoZ1y/fSZg7R9jPMix8eVA6DH4o/q8="; pin-sha256="Gtk3r1evlBrs0hG3fm3VoM19daHexDWP//OCmeeMr5M="; pin-sha256="I/Lt/z7ekCWanjD0Cvj5EqXls2lOaThEA0H2Bg4BT/o="; pin-sha256="JbQbUG5JMJUoI6brnx0x3vZF6jilxsapbXGVfjhN8Fg="; pin-sha256="SVqWumuteCQHvVIaALrOZXuzVVVeS7f4FGxxu6V+es4="; pin-sha256="UZJDjsNp1+4M5x9cbbdflB779y5YRBcV6Z6rBMLIrO4="; pin-sha256="Wd8xe/qfTwq3ylFNd3IpaqLHZbh2ZNCLluVzmeNkcpw="; pin-sha256="WoiWRyIOVNa9ihaBciRSC7XHjliYS9VwUGOIud4PB18="; pin-sha256="cAajgxHlj7GTSEIzIYIQxmEloOSoJq7VOaxWHfv72QM="; pin-sha256="dolnbtzEBnELx/9lOEQ22e6OZO/QNb6VSSX2XHA3E7A="; pin-sha256="i7WTqTvh0OioIruIfFR4kMPnBqrS2rdiVPl/s2uC/CY="; pin-sha256="iduNzFNKpwYZ3se/XV+hXcbUonlLw09QPa6AYUwpu4M="; pin-sha256="lnsM2T/O9/J84sJFdnrpsFp3awZJ+ZZbYpCWhGloaHI="; pin-sha256="r/mIkG3eEpVdm+u/ko/cwxzOMo1bk4TyHIlByibiA5E="; pin-sha256="uUwZgwDOxcBXrQcntwu+kYFpkiVkOaezL0WYEZ3anJc="; includeSubdomains; report-uri="http://csp.yahoo.com/beacon/csp?src=yahoocom-hpkp-report-only"'
p166
tp167
aatRp168
sbsS'reason'
p169
S'OK'
p170
sS'history'
p171
(lp172
sb.