(dp1
S'travel'
p2
(dp3
Vstatus
p4
(dp5
Vcode
p6
I10000
sVdescription
p7
VOk
p8
ssVoutputs
p9
(lp10
(dp11
Vstatus
p12
(dp13
Vcode
p14
I10000
sVdescription
p15
VOk
p16
ssVcreated_at
p17
V2018-07-27T03:39:29.406239640Z
p18
sVinput
p19
(dp20
Vdata
p21
(dp22
Vimage
p23
(dp24
Vurl
p25
Vhttps://farm1.staticflickr.com/624/23122869176_5e08cc1996_b.jpg
p26
sssVid
p27
Vdb4ef75c9dd045c79186d3154b6bd215
p28
ssVmodel
p29
(dp30
Vdisplay_name
p31
VTravel
p32
sVname
p33
Vtravel-v1.0
p34
sVoutput_info
p35
(dp36
Vtype_ext
p37
Vconcept
p38
sVmessage
p39
VShow output_info with: GET /models/{model_id}/output_info
p40
sVtype
p41
Vconcept
p42
ssVcreated_at
p43
V2016-09-17T22:18:59.955626Z
p44
sVapp_id
p45
Vmain
p46
sVmodel_version
p47
(dp48
Vstatus
p49
(dp50
Vcode
p51
I21100
sVdescription
p52
VModel trained successfully
p53
ssVcreated_at
p54
V2016-09-17T22:18:59.955626Z
p55
sVid
p56
Vd2ffbf9730fd41fea79063270847be82
p57
ssVid
p58
Veee28c313d69466f836ab83287a54ed9
p59
ssVdata
p60
(dp61
Vconcepts
p62
(lp63
(dp64
Vapp_id
p65
Vmain
p66
sVid
p67
Vai_CVQVtMzc
p68
sVvalue
p69
F0.76019645000000002
sVname
p70
VNighttime
p71
sa(dp72
Vapp_id
p73
Vmain
p74
sVid
p75
Vai_3j6nNvsH
p76
sVvalue
p77
F0.72642200000000001
sVname
p78
VCasino
p79
sa(dp80
Vapp_id
p81
Vmain
p82
sVid
p83
Vai_1gfzSbdC
p84
sVvalue
p85
F0.67401990000000001
sVname
p86
VEntrance
p87
sa(dp88
Vapp_id
p89
Vmain
p90
sVid
p91
Vai_dXWGf1bz
p92
sVvalue
p93
F0.48987857000000001
sVname
p94
VBuilding
p95
sa(dp96
Vapp_id
p97
Vmain
p98
sVid
p99
Vai_RM5WcxGX
p100
sVvalue
p101
F0.40847474
sVname
p102
VBar
p103
sa(dp104
Vapp_id
p105
Vmain
p106
sVid
p107
Vai_zdZZcgX8
p108
sVvalue
p109
F0.30865619999999999
sVname
p110
VSurroundings
p111
sa(dp112
Vapp_id
p113
Vmain
p114
sVid
p115
Vai_KpHGGkfp
p116
sVvalue
p117
F0.27503391999999999
sVname
p118
VFountain
p119
sa(dp120
Vapp_id
p121
Vmain
p122
sVid
p123
Vai_sVFZBjj5
p124
sVvalue
p125
F0.27088329999999999
sVname
p126
VGame Room
p127
sa(dp128
Vapp_id
p129
Vmain
p130
sVid
p131
Vai_K7dZBpd9
p132
sVvalue
p133
F0.24793181
sVname
p134
VLounge
p135
sa(dp136
Vapp_id
p137
Vmain
p138
sVid
p139
Vai_zF1MvGHt
p140
sVvalue
p141
F0.23773034000000001
sVname
p142
VTelevision
p143
sa(dp144
Vapp_id
p145
Vmain
p146
sVid
p147
Vai_MbpTFJxj
p148
sVvalue
p149
F0.23676108000000001
sVname
p150
VGarden
p151
sa(dp152
Vapp_id
p153
Vmain
p154
sVid
p155
Vai_3C3JQsX0
p156
sVvalue
p157
F0.21447250000000001
sVname
p158
VBilliards
p159
sa(dp160
Vapp_id
p161
Vmain
p162
sVid
p163
Vai_3zmv8r1f
p164
sVvalue
p165
F0.21259396999999999
sVname
p166
VGift Shop
p167
sa(dp168
Vapp_id
p169
Vmain
p170
sVid
p171
Vai_sf6B79BS
p172
sVvalue
p173
F0.21028326
sVname
p174
VSports & Activities
p175
sa(dp176
Vapp_id
p177
Vmain
p178
sVid
p179
Vai_wKZngtKg
p180
sVvalue
p181
F0.19961925999999999
sVname
p182
VRestaurant
p183
sa(dp184
Vapp_id
p185
Vmain
p186
sVid
p187
Vai_VrkkZ5HT
p188
sVvalue
p189
F0.18183922999999999
sVname
p190
VLogo
p191
sa(dp192
Vapp_id
p193
Vmain
p194
sVid
p195
Vai_XB2b9m4v
p196
sVvalue
p197
F0.18157907000000001
sVname
p198
VSummer
p199
sa(dp200
Vapp_id
p201
Vmain
p202
sVid
p203
Vai_Gg9h60xC
p204
sVvalue
p205
F0.18015307
sVname
p206
VFood & Beverages
p207
sa(dp208
Vapp_id
p209
Vmain
p210
sVid
p211
Vai_qTLt1x5s
p212
sVvalue
p213
F0.16652891
sVname
p214
VBallroom
p215
sa(dp216
Vapp_id
p217
Vmain
p218
sVid
p219
Vai_lt2nKTB2
p220
sVvalue
p221
F0.13268629000000001
sVname
p222
VTerrace
p223
sassVid
p224
V9bfbd86fc8b742ec9dda909b2ad09258
p225
sassS'general'
p226
(dp227
Vstatus
p228
(dp229
Vcode
p230
I10000
sVdescription
p231
VOk
p232
ssVoutputs
p233
(lp234
(dp235
Vstatus
p236
(dp237
Vcode
p238
I10000
sVdescription
p239
VOk
p240
ssVcreated_at
p241
V2018-07-27T03:39:28.743830367Z
p242
sVinput
p243
(dp244
Vdata
p245
(dp246
Vimage
p247
(dp248
Vurl
p249
Vhttps://farm1.staticflickr.com/624/23122869176_5e08cc1996_b.jpg
p250
sssVid
p251
Vc8158b30b12640a6aeba299a0d5990e7
p252
ssVmodel
p253
(dp254
Vdisplay_name
p255
VGeneral
p256
sVname
p257
Vgeneral-v1.3
p258
sVoutput_info
p259
(dp260
Vtype_ext
p261
Vconcept
p262
sVmessage
p263
VShow output_info with: GET /models/{model_id}/output_info
p264
sVtype
p265
Vconcept
p266
ssVcreated_at
p267
V2016-03-09T17:11:39.608845Z
p268
sVapp_id
p269
Vmain
p270
sVmodel_version
p271
(dp272
Vstatus
p273
(dp274
Vcode
p275
I21100
sVdescription
p276
VModel trained successfully
p277
ssVcreated_at
p278
V2016-07-13T01:19:12.147644Z
p279
sVid
p280
Vaa9ca48295b37401f8af92ad1af0d91d
p281
ssVid
p282
Vaaa03c23b3724a16a56b629203edc62c
p283
ssVdata
p284
(dp285
Vconcepts
p286
(lp287
(dp288
Vapp_id
p289
Vmain
p290
sVid
p291
Vai_LplXDDZ2
p292
sVvalue
p293
F0.99733996000000003
sVname
p294
Vcar
p295
sa(dp296
Vapp_id
p297
Vmain
p298
sVid
p299
Vai_WTrlNkqM
p300
sVvalue
p301
F0.98315189999999997
sVname
p302
Vvehicle
p303
sa(dp304
Vapp_id
p305
Vmain
p306
sVid
p307
Vai_GjVpxXrs
p308
sVvalue
p309
F0.97605050000000004
sVname
p310
Vstreet
p311
sa(dp312
Vapp_id
p313
Vmain
p314
sVid
p315
Vai_Xxjc3MhT
p316
sVvalue
p317
F0.96120064999999999
sVname
p318
Vtransportation system
p319
sa(dp320
Vapp_id
p321
Vmain
p322
sVid
p323
Vai_vMZvx6j4
p324
sVvalue
p325
F0.95579150000000002
sVname
p326
Vmonochrome
p327
sa(dp328
Vapp_id
p329
Vmain
p330
sVid
p331
Vai_TZ3C79C6
p332
sVvalue
p333
F0.94588349999999999
sVname
p334
Vroad
p335
sa(dp336
Vapp_id
p337
Vmain
p338
sVid
p339
Vai_K2d5Ps8r
p340
sVvalue
p341
F0.94033480000000003
sVname
p342
Vautomotive
p343
sa(dp344
Vapp_id
p345
Vmain
p346
sVid
p347
Vai_VRmbGVWh
p348
sVvalue
p349
F0.88611770000000001
sVname
p350
Vtravel
p351
sa(dp352
Vapp_id
p353
Vmain
p354
sVid
p355
Vai_lrTHSPdB
p356
sVvalue
p357
F0.88425149999999997
sVname
p358
Vaction
p359
sa(dp360
Vapp_id
p361
Vmain
p362
sVid
p363
Vai_tr0MBp64
p364
sVvalue
p365
F0.8471786
sVname
p366
Vtraffic
p367
sa(dp368
Vapp_id
p369
Vmain
p370
sVid
p371
Vai_786Zr311
p372
sVvalue
p373
F0.83695350000000002
sVname
p374
Vno person
p375
sa(dp376
Vapp_id
p377
Vmain
p378
sVid
p379
Vai_9WFnldtB
p380
sVvalue
p381
F0.82193050000000001
sVname
p382
Vhurry
p383
sa(dp384
Vapp_id
p385
Vmain
p386
sVid
p387
Vai_WBQfVV0p
p388
sVvalue
p389
F0.81861159999999999
sVname
p390
Vcity
p391
sa(dp392
Vapp_id
p393
Vmain
p394
sVid
p395
Vai_7WNVdPhm
p396
sVvalue
p397
F0.81649976999999996
sVname
p398
Vcompetition
p399
sa(dp400
Vapp_id
p401
Vmain
p402
sVid
p403
Vai_l8TKp2h5
p404
sVvalue
p405
F0.81614710000000001
sVname
p406
Vpeople
p407
sa(dp408
Vapp_id
p409
Vmain
p410
sVid
p411
Vai_vxpRR3nL
p412
sVvalue
p413
F0.81432009999999999
sVname
p414
Vpolice
p415
sa(dp416
Vapp_id
p417
Vmain
p418
sVid
p419
Vai_7Xg5SQRW
p420
sVvalue
p421
F0.79546689999999998
sVname
p422
Vluxury
p423
sa(dp424
Vapp_id
p425
Vmain
p426
sVid
p427
Vai_n9vjC1jB
p428
sVvalue
p429
F0.79245054999999998
sVname
p430
Vlight
p431
sa(dp432
Vapp_id
p433
Vmain
p434
sVid
p435
Vai_f3fsJS61
p436
sVvalue
p437
F0.79103506000000001
sVname
p438
Vpavement
p439
sa(dp440
Vapp_id
p441
Vmain
p442
sVid
p443
Vai_l4WckcJN
p444
sVvalue
p445
F0.77196556000000005
sVname
p446
Vblur
p447
sassVid
p448
Vb3c18e8f0a8946e381fe7b84d7b65a88
p449
sass.