(dp1
S'travel'
p2
(dp3
Vstatus
p4
(dp5
Vcode
p6
I10000
sVdescription
p7
VOk
p8
ssVoutputs
p9
(lp10
(dp11
Vstatus
p12
(dp13
Vcode
p14
I10000
sVdescription
p15
VOk
p16
ssVcreated_at
p17
V2018-07-27T04:02:41.240133436Z
p18
sVinput
p19
(dp20
Vdata
p21
(dp22
Vimage
p23
(dp24
Vurl
p25
Vhttps://farm2.staticflickr.com/1733/28822394628_ba7e3d4491_b.jpg
p26
sssVid
p27
Vdda9b060d4f44645982a2018941a2446
p28
ssVmodel
p29
(dp30
Vdisplay_name
p31
VTravel
p32
sVname
p33
Vtravel-v1.0
p34
sVoutput_info
p35
(dp36
Vtype_ext
p37
Vconcept
p38
sVmessage
p39
VShow output_info with: GET /models/{model_id}/output_info
p40
sVtype
p41
Vconcept
p42
ssVcreated_at
p43
V2016-09-17T22:18:59.955626Z
p44
sVapp_id
p45
Vmain
p46
sVmodel_version
p47
(dp48
Vstatus
p49
(dp50
Vcode
p51
I21100
sVdescription
p52
VModel trained successfully
p53
ssVcreated_at
p54
V2016-09-17T22:18:59.955626Z
p55
sVid
p56
Vd2ffbf9730fd41fea79063270847be82
p57
ssVid
p58
Veee28c313d69466f836ab83287a54ed9
p59
ssVdata
p60
(dp61
Vconcepts
p62
(lp63
(dp64
Vapp_id
p65
Vmain
p66
sVid
p67
Vai_4jNtvp5v
p68
sVvalue
p69
F0.78956276000000003
sVname
p70
VAutumn
p71
sa(dp72
Vapp_id
p73
Vmain
p74
sVid
p75
Vai_XB2b9m4v
p76
sVvalue
p77
F0.7286551
sVname
p78
VSummer
p79
sa(dp80
Vapp_id
p81
Vmain
p82
sVid
p83
Vai_2jkxl4Fz
p84
sVvalue
p85
F0.67848520000000001
sVname
p86
VSpring
p87
sa(dp88
Vapp_id
p89
Vmain
p90
sVid
p91
Vai_4NvhWszJ
p92
sVvalue
p93
F0.58224319999999996
sVname
p94
VSnow & Ski Sports
p95
sa(dp96
Vapp_id
p97
Vmain
p98
sVid
p99
Vai_hjvL4F9K
p100
sVvalue
p101
F0.54645770000000005
sVname
p102
VWinter
p103
sa(dp104
Vapp_id
p105
Vmain
p106
sVid
p107
Vai_zdZZcgX8
p108
sVvalue
p109
F0.44782785000000003
sVname
p110
VSurroundings
p111
sa(dp112
Vapp_id
p113
Vmain
p114
sVid
p115
Vai_q4dFqXVs
p116
sVvalue
p117
F0.27676089999999998
sVname
p118
VBoat
p119
sa(dp120
Vapp_id
p121
Vmain
p122
sVid
p123
Vai_8lSXGvks
p124
sVvalue
p125
F0.20259068999999999
sVname
p126
VView
p127
sa(dp128
Vapp_id
p129
Vmain
p130
sVid
p131
Vai_hmSzCZd5
p132
sVvalue
p133
F0.13059501000000001
sVname
p134
VDaytime
p135
sa(dp136
Vapp_id
p137
Vmain
p138
sVid
p139
Vai_m7PCbqbx
p140
sVvalue
p141
F0.082612240000000003
sVname
p142
VGolf Course
p143
sa(dp144
Vapp_id
p145
Vmain
p146
sVid
p147
Vai_zF1MvGHt
p148
sVvalue
p149
F0.072410790000000003
sVname
p150
VTelevision
p151
sa(dp152
Vapp_id
p153
Vmain
p154
sVid
p155
Vai_8v2Tm2Gl
p156
sVvalue
p157
F0.070347555000000006
sVname
p158
VHot Tub
p159
sa(dp160
Vapp_id
p161
Vmain
p162
sVid
p163
Vai_T4GN2Cdl
p164
sVvalue
p165
F0.062366668
sVname
p166
VWater Sports
p167
sa(dp168
Vapp_id
p169
Vmain
p170
sVid
p171
Vai_7kVDV8Md
p172
sVvalue
p173
F0.056639200000000001
sVname
p174
VBicycling
p175
sa(dp176
Vapp_id
p177
Vmain
p178
sVid
p179
Vai_dXWGf1bz
p180
sVvalue
p181
F0.045028805999999998
sVname
p182
VBuilding
p183
sa(dp184
Vapp_id
p185
Vmain
p186
sVid
p187
Vai_TCZdTr6B
p188
sVvalue
p189
F0.044980912999999997
sVname
p190
VYoga
p191
sa(dp192
Vapp_id
p193
Vmain
p194
sVid
p195
Vai_NVNKLrCW
p196
sVvalue
p197
F0.036557640000000002
sVname
p198
VDetails
p199
sa(dp200
Vapp_id
p201
Vmain
p202
sVid
p203
Vai_CVQVtMzc
p204
sVvalue
p205
F0.033319639999999998
sVname
p206
VNighttime
p207
sa(dp208
Vapp_id
p209
Vmain
p210
sVid
p211
Vai_sf6B79BS
p212
sVvalue
p213
F0.027577709999999998
sVname
p214
VSports & Activities
p215
sa(dp216
Vapp_id
p217
Vmain
p218
sVid
p219
Vai_PtsQBLC8
p220
sVvalue
p221
F0.025897837999999999
sVname
p222
VFireplace
p223
sassVid
p224
Vfec1b46b3f164f998f4f5151df1ebfd3
p225
sassS'general'
p226
(dp227
Vstatus
p228
(dp229
Vcode
p230
I10000
sVdescription
p231
VOk
p232
ssVoutputs
p233
(lp234
(dp235
Vstatus
p236
(dp237
Vcode
p238
I10000
sVdescription
p239
VOk
p240
ssVcreated_at
p241
V2018-07-27T04:02:40.863196766Z
p242
sVinput
p243
(dp244
Vdata
p245
(dp246
Vimage
p247
(dp248
Vurl
p249
Vhttps://farm2.staticflickr.com/1733/28822394628_ba7e3d4491_b.jpg
p250
sssVid
p251
Vcd80633663a54a8cbfd129715f8ba02b
p252
ssVmodel
p253
(dp254
Vdisplay_name
p255
VGeneral
p256
sVname
p257
Vgeneral-v1.3
p258
sVoutput_info
p259
(dp260
Vtype_ext
p261
Vconcept
p262
sVmessage
p263
VShow output_info with: GET /models/{model_id}/output_info
p264
sVtype
p265
Vconcept
p266
ssVcreated_at
p267
V2016-03-09T17:11:39.608845Z
p268
sVapp_id
p269
Vmain
p270
sVmodel_version
p271
(dp272
Vstatus
p273
(dp274
Vcode
p275
I21100
sVdescription
p276
VModel trained successfully
p277
ssVcreated_at
p278
V2016-07-13T01:19:12.147644Z
p279
sVid
p280
Vaa9ca48295b37401f8af92ad1af0d91d
p281
ssVid
p282
Vaaa03c23b3724a16a56b629203edc62c
p283
ssVdata
p284
(dp285
Vconcepts
p286
(lp287
(dp288
Vapp_id
p289
Vmain
p290
sVid
p291
Vai_l09WQRHT
p292
sVvalue
p293
F0.99635494000000002
sVname
p294
Vsnow
p295
sa(dp296
Vapp_id
p297
Vmain
p298
sVid
p299
Vai_3DwNCm6R
p300
sVvalue
p301
F0.99469185000000004
sVname
p302
Vlake
p303
sa(dp304
Vapp_id
p305
Vmain
p306
sVid
p307
Vai_786Zr311
p308
sVvalue
p309
F0.99140260000000002
sVname
p310
Vno person
p311
sa(dp312
Vapp_id
p313
Vmain
p314
sVid
p315
Vai_BlL0wSQh
p316
sVvalue
p317
F0.98600613999999998
sVname
p318
Vwater
p319
sa(dp320
Vapp_id
p321
Vmain
p322
sVid
p323
Vai_VJXZtfth
p324
sVvalue
p325
F0.98328506999999998
sVname
p326
Vmountain
p327
sa(dp328
Vapp_id
p329
Vmain
p330
sVid
p331
Vai_MTvKbKJv
p332
sVvalue
p333
F0.97279749999999998
sVname
p334
Vlandscape
p335
sa(dp336
Vapp_id
p337
Vmain
p338
sVid
p339
Vai_mlrv94tv
p340
sVvalue
p341
F0.96123504999999998
sVname
p342
Vreflection
p343
sa(dp344
Vapp_id
p345
Vmain
p346
sVid
p347
Vai_VRmbGVWh
p348
sVvalue
p349
F0.93653052999999997
sVname
p350
Vtravel
p351
sa(dp352
Vapp_id
p353
Vmain
p354
sVid
p355
Vai_tBcWlsCp
p356
sVvalue
p357
F0.91809594999999999
sVname
p358
Vnature
p359
sa(dp360
Vapp_id
p361
Vmain
p362
sVid
p363
Vai_zFnPQdgB
p364
sVvalue
p365
F0.91765140000000001
sVname
p366
Vwood
p367
sa(dp368
Vapp_id
p369
Vmain
p370
sVid
p371
Vai_jGkHfX9T
p372
sVvalue
p373
F0.91735330000000004
sVname
p374
Vice
p375
sa(dp376
Vapp_id
p377
Vmain
p378
sVid
p379
Vai_Zmhsv0Ch
p380
sVvalue
p381
F0.91064020000000001
sVname
p382
Voutdoors
p383
sa(dp384
Vapp_id
p385
Vmain
p386
sVid
p387
Vai_T92C0C63
p388
sVvalue
p389
F0.90335840000000001
sVname
p390
Vscenic
p391
sa(dp392
Vapp_id
p393
Vmain
p394
sVid
p395
Vai_fZxMPT5l
p396
sVvalue
p397
F0.90229250000000005
sVname
p398
Vriver
p399
sa(dp400
Vapp_id
p401
Vmain
p402
sVid
p403
Vai_lNsKfmXb
p404
sVvalue
p405
F0.89262699999999995
sVname
p406
Vsky
p407
sa(dp408
Vapp_id
p409
Vmain
p410
sVid
p411
Vai_LmFtHz7q
p412
sVvalue
p413
F0.89061873999999996
sVname
p414
Vfall
p415
sa(dp416
Vapp_id
p417
Vmain
p418
sVid
p419
Vai_lN6KXkcl
p420
sVvalue
p421
F0.86818390000000001
sVname
p422
Vdawn
p423
sa(dp424
Vapp_id
p425
Vmain
p426
sVid
p427
Vai_zxJ8klm2
p428
sVvalue
p429
F0.84243749999999995
sVname
p430
Vjasper
p431
sa(dp432
Vapp_id
p433
Vmain
p434
sVid
p435
Vai_2FHPKk9B
p436
sVvalue
p437
F0.84208006000000002
sVname
p438
Vwinter
p439
sa(dp440
Vapp_id
p441
Vmain
p442
sVid
p443
Vai_8t8XsFJD
p444
sVvalue
p445
F0.83614049999999995
sVname
p446
Vlakeside
p447
sassVid
p448
Vc13ce34560c44cbeafabf828be9e80fc
p449
sass.