(dp1
S'travel'
p2
(dp3
Vstatus
p4
(dp5
Vcode
p6
I10000
sVdescription
p7
VOk
p8
ssVoutputs
p9
(lp10
(dp11
Vstatus
p12
(dp13
Vcode
p14
I10000
sVdescription
p15
VOk
p16
ssVcreated_at
p17
V2018-07-27T04:05:57.073435013Z
p18
sVinput
p19
(dp20
Vdata
p21
(dp22
Vimage
p23
(dp24
Vurl
p25
Vhttps://farm1.staticflickr.com/32/67844492_21467ac65a_b.jpg
p26
sssVid
p27
V16aad93263794c5b82a48923fa363184
p28
ssVmodel
p29
(dp30
Vdisplay_name
p31
VTravel
p32
sVname
p33
Vtravel-v1.0
p34
sVoutput_info
p35
(dp36
Vtype_ext
p37
Vconcept
p38
sVmessage
p39
VShow output_info with: GET /models/{model_id}/output_info
p40
sVtype
p41
Vconcept
p42
ssVcreated_at
p43
V2016-09-17T22:18:59.955626Z
p44
sVapp_id
p45
Vmain
p46
sVmodel_version
p47
(dp48
Vstatus
p49
(dp50
Vcode
p51
I21100
sVdescription
p52
VModel trained successfully
p53
ssVcreated_at
p54
V2016-09-17T22:18:59.955626Z
p55
sVid
p56
Vd2ffbf9730fd41fea79063270847be82
p57
ssVid
p58
Veee28c313d69466f836ab83287a54ed9
p59
ssVdata
p60
(dp61
Vconcepts
p62
(lp63
(dp64
Vapp_id
p65
Vmain
p66
sVid
p67
Vai_VrkkZ5HT
p68
sVvalue
p69
F0.96932379999999996
sVname
p70
VLogo
p71
sa(dp72
Vapp_id
p73
Vmain
p74
sVid
p75
Vai_21rnC1M0
p76
sVvalue
p77
F0.27490407
sVname
p78
VLamp
p79
sa(dp80
Vapp_id
p81
Vmain
p82
sVid
p83
Vai_1lSRr75N
p84
sVvalue
p85
F0.23797641999999999
sVname
p86
VIn-Room Kitchenette
p87
sa(dp88
Vapp_id
p89
Vmain
p90
sVid
p91
Vai_T4GN2Cdl
p92
sVvalue
p93
F0.19053769000000001
sVname
p94
VWater Sports
p95
sa(dp96
Vapp_id
p97
Vmain
p98
sVid
p99
Vai_CTkzKSFH
p100
sVvalue
p101
F0.18065766
sVname
p102
VFloor Plan
p103
sa(dp104
Vapp_id
p105
Vmain
p106
sVid
p107
Vai_2QTpTbBt
p108
sVvalue
p109
F0.17693228999999999
sVname
p110
VPeople
p111
sa(dp112
Vapp_id
p113
Vmain
p114
sVid
p115
Vai_TCZdTr6B
p116
sVvalue
p117
F0.17276411
sVname
p118
VYoga
p119
sa(dp120
Vapp_id
p121
Vmain
p122
sVid
p123
Vai_v5zlpKkc
p124
sVvalue
p125
F0.14076237
sVname
p126
VTennis Court
p127
sa(dp128
Vapp_id
p129
Vmain
p130
sVid
p131
Vai_Ff2Z4rwt
p132
sVvalue
p133
F0.12834810999999999
sVname
p134
VMinibar
p135
sa(dp136
Vapp_id
p137
Vmain
p138
sVid
p139
Vai_PtsQBLC8
p140
sVvalue
p141
F0.12400435999999999
sVname
p142
VFireplace
p143
sa(dp144
Vapp_id
p145
Vmain
p146
sVid
p147
Vai_WhTVfZkF
p148
sVvalue
p149
F0.12116146
sVname
p150
VHotel Map
p151
sa(dp152
Vapp_id
p153
Vmain
p154
sVid
p155
Vai_4NvhWszJ
p156
sVvalue
p157
F0.11434767999999999
sVname
p158
VSnow & Ski Sports
p159
sa(dp160
Vapp_id
p161
Vmain
p162
sVid
p163
Vai_PwpRfsD8
p164
sVvalue
p165
F0.10458061
sVname
p166
VCoffee Machine
p167
sa(dp168
Vapp_id
p169
Vmain
p170
sVid
p171
Vai_b8Mtxj85
p172
sVvalue
p173
F0.10030011
sVname
p174
VTelephone
p175
sa(dp176
Vapp_id
p177
Vmain
p178
sVid
p179
Vai_q4dFqXVs
p180
sVvalue
p181
F0.10007489
sVname
p182
VBoat
p183
sa(dp184
Vapp_id
p185
Vmain
p186
sVid
p187
Vai_10wRz2HT
p188
sVvalue
p189
F0.098747000000000001
sVname
p190
VInternet Area
p191
sa(dp192
Vapp_id
p193
Vmain
p194
sVid
p195
Vai_6bSB4lrf
p196
sVvalue
p197
F0.090666499999999997
sVname
p198
VCouch
p199
sa(dp200
Vapp_id
p201
Vmain
p202
sVid
p203
Vai_hmSzCZd5
p204
sVvalue
p205
F0.089415019999999998
sVname
p206
VDaytime
p207
sa(dp208
Vapp_id
p209
Vmain
p210
sVid
p211
Vai_Chn8gtkj
p212
sVvalue
p213
F0.087545570000000003
sVname
p214
VWardrobe
p215
sa(dp216
Vapp_id
p217
Vmain
p218
sVid
p219
Vai_J2x9qKdS
p220
sVvalue
p221
F0.08202392
sVname
p222
VAnimals
p223
sassVid
p224
V3e79c22a72ed42489b48f81c82c7800a
p225
sassS'general'
p226
(dp227
Vstatus
p228
(dp229
Vcode
p230
I10000
sVdescription
p231
VOk
p232
ssVoutputs
p233
(lp234
(dp235
Vstatus
p236
(dp237
Vcode
p238
I10000
sVdescription
p239
VOk
p240
ssVcreated_at
p241
V2018-07-27T04:05:56.304886651Z
p242
sVinput
p243
(dp244
Vdata
p245
(dp246
Vimage
p247
(dp248
Vurl
p249
Vhttps://farm1.staticflickr.com/32/67844492_21467ac65a_b.jpg
p250
sssVid
p251
V5a451cf31ac1431f96b46ede86424472
p252
ssVmodel
p253
(dp254
Vdisplay_name
p255
VGeneral
p256
sVname
p257
Vgeneral-v1.3
p258
sVoutput_info
p259
(dp260
Vtype_ext
p261
Vconcept
p262
sVmessage
p263
VShow output_info with: GET /models/{model_id}/output_info
p264
sVtype
p265
Vconcept
p266
ssVcreated_at
p267
V2016-03-09T17:11:39.608845Z
p268
sVapp_id
p269
Vmain
p270
sVmodel_version
p271
(dp272
Vstatus
p273
(dp274
Vcode
p275
I21100
sVdescription
p276
VModel trained successfully
p277
ssVcreated_at
p278
V2016-07-13T01:19:12.147644Z
p279
sVid
p280
Vaa9ca48295b37401f8af92ad1af0d91d
p281
ssVid
p282
Vaaa03c23b3724a16a56b629203edc62c
p283
ssVdata
p284
(dp285
Vconcepts
p286
(lp287
(dp288
Vapp_id
p289
Vmain
p290
sVid
p291
Vai_Dm5GLXnB
p292
sVvalue
p293
F0.99609375
sVname
p294
Villustration
p295
sa(dp296
Vapp_id
p297
Vmain
p298
sVid
p299
Vai_20SCBBZ0
p300
sVvalue
p301
F0.98887049999999999
sVname
p302
Vvector
p303
sa(dp304
Vapp_id
p305
Vmain
p306
sVid
p307
Vai_vfV1Zf9w
p308
sVvalue
p309
F0.98473250000000001
sVname
p310
Vhorizontal
p311
sa(dp312
Vapp_id
p313
Vmain
p314
sVid
p315
Vai_V0WFhmCF
p316
sVvalue
p317
F0.97442419999999996
sVname
p318
Vpattern
p319
sa(dp320
Vapp_id
p321
Vmain
p322
sVid
p323
Vai_JBPqff8z
p324
sVvalue
p325
F0.97092973999999999
sVname
p326
Vart
p327
sa(dp328
Vapp_id
p329
Vmain
p330
sVid
p331
Vai_L92T2QtK
p332
sVvalue
p333
F0.96916910000000001
sVname
p334
Vdecoration
p335
sa(dp336
Vapp_id
p337
Vmain
p338
sVid
p339
Vai_cMfj16kJ
p340
sVvalue
p341
F0.96625130000000004
sVname
p342
Vdesign
p343
sa(dp344
Vapp_id
p345
Vmain
p346
sVid
p347
Vai_ZSKpCCHD
p348
sVvalue
p349
F0.95638466
sVname
p350
Vvertical
p351
sa(dp352
Vapp_id
p353
Vmain
p354
sVid
p355
Vai_FxBb2x8N
p356
sVvalue
p357
F0.95082473999999995
sVname
p358
Vshape
p359
sa(dp360
Vapp_id
p361
Vmain
p362
sVid
p363
Vai_Lq00FggW
p364
sVvalue
p365
F0.94649609999999995
sVname
p366
Vdesktop
p367
sa(dp368
Vapp_id
p369
Vmain
p370
sVid
p371
Vai_sTjX6dqC
p372
sVvalue
p373
F0.94305600000000001
sVname
p374
Vabstract
p375
sa(dp376
Vapp_id
p377
Vmain
p378
sVid
p379
Vai_l8TKp2h5
p380
sVvalue
p381
F0.94295894999999996
sVname
p382
Vpeople
p383
sa(dp384
Vapp_id
p385
Vmain
p386
sVid
p387
Vai_h45ZTxZl
p388
sVvalue
p389
F0.94295627000000004
sVname
p390
Vsquare
p391
sa(dp392
Vapp_id
p393
Vmain
p394
sVid
p395
Vai_hS0cvZDj
p396
sVvalue
p397
F0.91814209999999996
sVname
p398
Vornate
p399
sa(dp400
Vapp_id
p401
Vmain
p402
sVid
p403
Vai_4Qjv5PTH
p404
sVvalue
p405
F0.9160452
sVname
p406
Vmodern
p407
sa(dp408
Vapp_id
p409
Vmain
p410
sVid
p411
Vai_ZrZ2XRhk
p412
sVvalue
p413
F0.90934550000000003
sVname
p414
Vdisjunct
p415
sa(dp416
Vapp_id
p417
Vmain
p418
sVid
p419
Vai_786Zr311
p420
sVvalue
p421
F0.90570059999999997
sVname
p422
Vno person
p423
sa(dp424
Vapp_id
p425
Vmain
p426
sVid
p427
Vai_XdcbGVpV
p428
sVvalue
p429
F0.90511549999999996
sVname
p430
Vpicture frame
p431
sa(dp432
Vapp_id
p433
Vmain
p434
sVid
p435
Vai_M78jFpM2
p436
sVvalue
p437
F0.88726780000000005
sVname
p438
Vtext
p439
sa(dp440
Vapp_id
p441
Vmain
p442
sVid
p443
Vai_8rNgfppJ
p444
sVvalue
p445
F0.88104903999999995
sVname
p446
Vsymbol
p447
sassVid
p448
Vdd6baf3323404f85b148f4d99ff3bd57
p449
sass.