(dp1
S'sid'
p2
(dp3
S'8b00535764d382ead4ed11ed989730dcd40cd02a787ff0fda13fda06.sid_pickle'
p4
(dp5
S'travel'
p6
(dp7
VLamp
p8
F0.38497283999999998
sVBathroom Shower
p9
F0.60706853999999999
sVFountain
p10
F0.39198250000000001
sVEntrance
p11
F0.35680980000000001
ssS'general'
p12
(dp13
Vwood
p14
F0.88177289999999997
sVdisjunct
p15
F0.97202529999999998
sVflora
p16
F0.83056439999999998
sVrudiment
p17
F0.82698786000000002
sVfamily
p18
F0.90690870000000001
sVnature
p19
F0.93900980000000001
sVindoors
p20
F0.86495303999999995
sValphabet
p21
F0.96864532999999997
sVisolated
p22
F0.850325
sVcontemporary
p23
F0.92765295999999997
sVtypography
p24
F0.88494134000000002
sVdecoration
p25
F0.84830594000000004
sVno person
p26
F0.98700739999999998
sVgrowth
p27
F0.89785219999999999
sVdesign
p28
F0.86888670000000001
sVoutdoors
p29
F0.85237660000000004
sVbaptismal font
p30
F0.82524839999999999
sVcactus
p31
F0.90083159999999995
sVtype
p32
F0.82781696000000005
sVstyle
p33
F0.82575893
sssS'5c035ba8674aba7069a605640487f667c4e30c4ce35e07b7b9e8bdf0.sid_pickle'
p34
(dp35
g6
(dp36
VBuilding
p37
F0.47470802000000001
sVEntrance
p38
F0.77304994999999999
sVDaytime
p39
F0.33146575
sVAutumn
p40
F0.37942399999999998
sVSurroundings
p41
F0.52002174000000001
sVFountain
p42
F0.36626344999999999
ssg12
(dp43
Vbuilding
p44
F0.98377559999999997
sVurban
p45
F0.97267115000000004
sVold
p46
F0.94404805000000003
sVfamily
p47
F0.89056575000000004
sVcity
p48
F0.96236860000000002
sVwall
p49
F0.94271229999999995
sVhouse
p50
F0.96165900000000004
sVtravel
p51
F0.90617499999999995
sVsky
p52
F0.86454843999999997
sVpavement
p53
F0.91591869999999997
sVtown
p54
F0.94840955999999998
sVwindow
p55
F0.95562433999999996
sVstreet
p56
F0.98274744000000003
sVarchitecture
p57
F0.9850565
sVexterior
p58
F0.91811359999999997
sVoutdoors
p59
F0.85175730000000005
sVfacade
p60
F0.9066149
sVconstruction
p61
F0.85555219999999998
sVexpression
p62
F0.88713085999999997
sVtourism
p63
F0.89555275000000001
sssS'e0eda69c36fa210caada4e75c8275914a33b989f55bad04e48506a10.sid_pickle'
p64
(dp65
g6
(dp66
VBuilding
p67
F0.53126746000000002
sVSummer
p68
F0.53038350000000001
sVEntrance
p69
F0.80415373999999995
sVGarden
p70
F0.3148262
sVAutumn
p71
F0.44259712000000001
sVTerrace
p72
F0.69579210000000002
sVKids Area
p73
F0.31939467999999999
ssg12
(dp74
Vbuilding
p75
F0.95142114
sVtown
p76
F0.88671564999999997
sVentrance
p77
F0.89864549999999999
sVapartment
p78
F0.89791894000000005
sVdoor
p79
F0.98172426000000002
sVestate
p80
F0.87257695000000002
sVfamily
p81
F0.98560950000000003
sVfront
p82
F0.89549303000000002
sVhouse
p83
F0.99490047000000004
sVproperty
p84
F0.86214184999999999
sVno person
p85
F0.93430363999999999
sVwindow
p86
F0.98487709999999995
sVstreet
p87
F0.93622386000000002
sVarchitecture
p88
F0.9941354
sVexterior
p89
F0.93393064000000003
sVresidential
p90
F0.88962996000000005
sVfacade
p91
F0.94030535000000004
sVhome
p92
F0.91025860000000003
sVbalcony
p93
F0.90005190000000002
sVluxury
p94
F0.91557060000000001
sssS'6710644bf0244bdc92ca505653491a1e7e827c5802d7688812085c76.sid_pickle'
p95
(dp96
g6
(dp97
VLogo
p98
F0.54901873999999995
sVEntrance
p99
F0.34733554999999999
sVStairs
p100
F0.44678983
ssg12
(dp101
Vpicture frame
p102
F0.80698186000000005
sVwood
p103
F0.93930769999999997
sVdisjunct
p104
F0.81508504999999998
sVold
p105
F0.77696750000000003
sVfamily
p106
F0.78615177000000003
sVbusiness
p107
F0.8414644
sVwooden
p108
F0.73583363999999996
sVoutdoors
p109
F0.79877819999999999
sVisolated
p110
F0.79211306999999997
sVillustration
p111
F0.78997695000000001
sVdesktop
p112
F0.81607366000000003
sVno person
p113
F0.96758359999999999
sVstep
p114
F0.91040885000000005
sVpaper
p115
F0.9163114
sVdesign
p116
F0.85845643000000005
sVretro
p117
F0.85226749999999996
sVletter
p118
F0.78232926000000003
sVblank
p119
F0.81180980000000003
sVwriting
p120
F0.73368465999999999
sVempty
p121
F0.93334980000000001
sssS'9b5a907cabd4561720157e26fb86f25ecd59d8ac9d8fc66db4cc678f.sid_pickle'
p122
(dp123
g6
(dp124
VSummer
p125
F0.31486487000000002
sVAnimals
p126
F0.33728154999999999
sVDaytime
p127
F0.31589847999999998
sVLamp
p128
F0.51908100000000001
sVFountain
p129
F0.59287900000000004
sVLogo
p130
F0.32632877999999998
sVSnow & Ski Sports
p131
F0.58354855000000005
ssg12
(dp132
Vdisjunct
p133
F0.98638990000000004
sVball-shaped
p134
F0.76314389999999999
sVart
p135
F0.90353640000000002
sVcrystal
p136
F0.82403530000000003
sVgeology
p137
F0.91813060000000002
sVmine
p138
F0.85039580000000004
sVindustry
p139
F0.88059030000000005
sVnature
p140
F0.98379369999999999
sVstone
p141
F0.96386740000000004
sVtexture
p142
F0.83850729999999996
sVone
p143
F0.89131830000000001
sVno person
p144
F0.98018150000000004
sVcephalopod ink
p145
F0.87703850000000005
sVsplash
p146
F0.76984750000000002
sVrock
p147
F0.92831266000000001
sVglazed
p148
F0.88701045999999995
sVrough
p149
F0.88585590000000003
sVround out
p150
F0.77240410000000004
sVsymbol
p151
F0.76537379999999999
sVshining
p152
F0.89931243999999999
sssS'b6cd7f9ce515fe91b3e9fc5e79c25eede40b7fc6e2c5b652bdadd7b8.sid_pickle'
p153
(dp154
g6
(dp155
VBuilding
p156
F0.57846560000000002
sVSummer
p157
F0.42021254000000002
sVDaytime
p158
F0.67823339999999999
sVAutumn
p159
F0.33917006999999999
sVSurroundings
p160
F0.84382849999999998
sVView
p161
F0.81945829999999997
ssg12
(dp162
Vbuilding
p163
F0.9759814
sVcity
p164
F0.95924306000000004
sVancient
p165
F0.94930243000000003
sVold
p166
F0.98600023999999997
sVsight
p167
F0.91561749999999997
sVexterior
p168
F0.90172209999999997
sVurban
p169
F0.89648830000000002
sVtravel
p170
F0.97031444
sVsky
p171
F0.91819200000000001
sVimperial
p172
F0.89328779999999997
sVtown
p173
F0.92444649999999995
sVhistoric
p174
F0.90709030000000002
sVGothic
p175
F0.98410045999999995
sVarchitecture
p176
F0.99469419999999997
sVgoth like
p177
F0.94352983999999995
sVlandmark
p178
F0.91303190000000001
sVchateau
p179
F0.88939714000000003
sVcastle
p180
F0.98824614
sVtourism
p181
F0.93320422999999997
sVtower
p182
F0.97356980000000004
sssS'c033629b3555a1bca560bb91919d53de35f3c1d4dde647fcfe7ce6ac.sid_pickle'
p183
(dp184
g6
(dp185
VBuilding
p186
F0.33875704000000001
sVWinter
p187
F0.33960899999999999
sVDaytime
p188
F0.32497764000000001
sVSurroundings
p189
F0.35355513999999999
sVFountain
p190
F0.60681087
sVBoat
p191
F0.60427165000000005
sVView
p192
F0.40776481999999997
ssg12
(dp193
Vbuilding
p194
F0.92430570000000001
sVbridge
p195
F0.94790509999999994
sVold
p196
F0.92419560000000001
sVreflection
p197
F0.93932380000000004
sVcity
p198
F0.9327531
sVtown
p199
F0.83834980000000003
sVhouse
p200
F0.90963499999999997
sVtravel
p201
F0.85693129999999995
sVnature
p202
F0.79174829999999996
sVsky
p203
F0.83448449999999996
sVwater
p204
F0.97985065000000005
sVno person
p205
F0.92839170000000004
sVstreet
p206
F0.93478439999999996
sVarchitecture
p207
F0.96931670000000003
sVvintage
p208
F0.82592189999999999
sVmonochrome
p209
F0.91728860000000001
sVriver
p210
F0.97648025000000005
sVoutdoors
p211
F0.78936519999999999
sVurban
p212
F0.85424529999999999
sVcanal
p213
F0.84290299999999996
sssS'8154a83857dfc7049d23a1858105b1b21ee64b5336a1bbb14f2c5623.sid_pickle'
p214
(dp215
g6
(dp216
VLogo
p217
F0.53513429999999995
sVSummer
p218
F0.31275915999999998
sVPeople
p219
F0.52041289999999996
sVDaytime
p220
F0.47035243999999998
sVWedding
p221
F0.62352883999999997
ssg12
(dp222
Vbuilding
p223
F0.73021780000000003
sVcity
p224
F0.85484539999999998
sVrevolution
p225
F0.61984086000000005
sVgroup
p226
F0.96613084999999999
sVbusiness
p227
F0.81506175000000003
sVcrowd
p228
F0.84919107000000005
sVpeople
p229
F0.99341416000000005
sVmany
p230
F0.93092439999999999
sVadministration
p231
F0.63738490000000003
sVskyline
p232
F0.72218729999999998
sVillustration
p233
F0.68818480000000004
sVleader
p234
F0.68584029999999996
sVflag
p235
F0.77445923999999999
sVstreet
p236
F0.90951380000000004
sVadult
p237
F0.80806345000000002
sVchild
p238
F0.68295216999999997
sVmilitary
p239
F0.80833619999999995
sVman
p240
F0.92077900000000001
sVwar
p241
F0.83722090000000005
sVgroup together
p242
F0.85975919999999995
sssS'cfadac065fce408eb11ca40fabca0bb0f6a1fe56ba14980e3b707d45.sid_pickle'
p243
(dp244
g6
(dp245
VTelevision
p246
F0.39567239999999998
sVYoga
p247
F0.82238489999999997
sVPeople
p248
F0.74478770000000005
sVSpring
p249
F0.32270125
sVDaytime
p250
F0.52183139999999995
sVAutumn
p251
F0.6917179
sVSports & Activities
p252
F0.33539586999999998
sVWedding
p253
F0.43356549999999999
sVFireplace
p254
F0.45249474000000001
ssg12
(dp255
Vbeautiful
p256
F0.95540016999999999
sVcute
p257
F0.95457769999999997
sVwoman
p258
F0.98731340000000001
sVsit
p259
F0.85600114000000005
sVadolescent
p260
F0.91217890000000001
sVnature
p261
F0.90988183
sVpeople
p262
F0.90710500000000005
sVyoung
p263
F0.95391769999999998
sVcasual
p264
F0.90705740000000001
sVhair
p265
F0.89357109999999995
sVfashion
p266
F0.98080599999999996
sVcollege
p267
F0.82214620000000005
sVsmile
p268
F0.85818220000000001
sVpretty
p269
F0.97683560000000003
sVsexy
p270
F0.91525245
sVportrait
p271
F0.94427419999999995
sVgirl
p272
F0.98263990000000001
sVone
p273
F0.88025766999999999
sVmodel
p274
F0.93782412999999998
sVglamour
p275
F0.87235269999999998
sssS'aaa3ea84357fd876f7736381b5918f4eada4498a056268e7bd4659f2.sid_pickle'
p276
(dp277
g6
(dp278
VFountain
p279
F0.34689893999999999
sVLamp
p280
F0.46732453000000002
sVYoga
p281
F0.47624635999999998
sVWedding
p282
F0.60030514000000001
ssg12
(dp283
Vvector
p284
F0.88031579999999998
sVwoman
p285
F0.93061835000000004
sVart
p286
F0.94547060000000005
sVfamily
p287
F0.90954745000000004
sVpeople
p288
F0.95808685000000005
sVblank
p289
F0.89768420000000004
sVisolated
p290
F0.88277406000000003
sVdark
p291
F0.91500603999999996
sVno person
p292
F0.87286543999999999
sVwindow
p293
F0.88506390000000001
sVsquare
p294
F0.90623129999999996
sVexhibition
p295
F0.92534340000000004
sVpublic show
p296
F0.95252882999999999
sVnature
p297
F0.86514729999999995
sVportrait
p298
F0.93125329999999995
sVmodel
p299
F0.89507199999999998
sVsilhouette
p300
F0.90087439999999996
sVgirl
p301
F0.89139389999999996
sVstage
p302
F0.88590360000000001
sVman
p303
F0.93316100000000002
sssS'c1b9494ce592c5d6fa7c89e7d72c02fe64c67bfa4aa64409ed7943a3.sid_pickle'
p304
(dp305
g6
(dp306
VAutumn
p307
F0.32116612999999999
sVEntrance
p308
F0.31687963000000002
sVTennis Court
p309
F0.49695420000000001
ssg12
(dp310
Vbuilding
p311
F0.93752979999999997
sVurban
p312
F0.94635939999999996
sVwire
p313
F0.94650350000000005
sVfamily
p314
F0.87303936000000004
sVbusiness
p315
F0.92816810000000005
sVcity
p316
F0.8779382
sVhouse
p317
F0.95912224000000001
sVoffice
p318
F0.86103165000000004
sVmodern
p319
F0.95556079999999999
sVcommercial
p320
F0.9185586
sVinside
p321
F0.83378302999999998
sVwindow
p322
F0.92581999999999998
sVstreet
p323
F0.97267543999999995
sVarchitecture
p324
F0.95051870000000005
sVlight
p325
F0.8720175
sVconstruction
p326
F0.90524090000000001
sVwood
p327
F0.85095334
sVexpression
p328
F0.9378997
sVindustry
p329
F0.86065910000000001
sVempty
p330
F0.85930203999999999
sssS'456a733ef56c80d01150b98b7c22d3a4f101fdd41be50362ca7e57cd.sid_pickle'
p331
(dp332
g6
(dp333
VSummer
p334
F0.74688584000000002
sVYoga
p335
F0.37556642000000001
sVSpring
p336
F0.52782620000000002
sVDaytime
p337
F0.34641176000000001
sVAutumn
p338
F0.67239090000000001
sVSurroundings
p339
F0.39467806
sVSnow & Ski Sports
p340
F0.3388042
sVView
p341
F0.79202883999999996
ssg12
(dp342
Vscenery
p343
F0.8423853
sVmountain
p344
F0.9830004
sVmist
p345
F0.85886249999999997
sVsummer
p346
F0.95722229999999997
sVflora
p347
F0.84609290000000004
sVtree
p348
F0.95355690000000004
sVtravel
p349
F0.94575670000000001
sVnature
p350
F0.99270559999999997
sVsky
p351
F0.95705055999999999
sVrock
p352
F0.89639245999999995
sVwater
p353
F0.8798648
sVno person
p354
F0.94505507
sVcloud
p355
F0.86667499999999997
sVwood
p356
F0.96483289999999999
sVhill
p357
F0.9236704
sVsight
p358
F0.90526019999999996
sVoutdoors
p359
F0.89762836999999995
sVfog
p360
F0.87899780000000005
sVvalley
p361
F0.86819369999999996
sVlandscape
p362
F0.97790485999999999
sssS'04b1c3f74ca9011a84a93e0c60760d00cb6eeb6f071cb21bf521b90f.sid_pickle'
p363
(dp364
g6
(dp365
VSummer
p366
F0.66953370000000001
sVYoga
p367
F0.52328390000000002
sVSpring
p368
F0.40701484999999998
sVAutumn
p369
F0.63012760000000001
sVSurroundings
p370
F0.60839140000000003
sVView
p371
F0.85861279999999995
ssg12
(dp372
Vbeautiful
p373
F0.88820182999999997
sVmountain
p374
F0.99225379999999996
sVsea
p375
F0.87612855000000001
sVnature
p376
F0.98844575999999995
sVisland
p377
F0.93949616000000002
sVtravel
p378
F0.97445930000000003
sVfog
p379
F0.94068660000000004
sVtree
p380
F0.95119536000000005
sVlake
p381
F0.94144640000000002
sVno person
p382
F0.91528739999999997
sVwater
p383
F0.98147523000000003
sVpanoramic
p384
F0.94220630000000005
sVwood
p385
F0.94657195000000005
sVsummer
p386
F0.92251099999999997
sVhill
p387
F0.94232123999999995
sVsight
p388
F0.93456779999999995
sVrock
p389
F0.87656970000000001
sVvalley
p390
F0.9201106
sVlandscape
p391
F0.98459960000000002
sVsky
p392
F0.91082585000000005
sssS'2ea4c3f5eb35e0a7d1e6ae515d732f9f23295fb13204473a0dcf423b.sid_pickle'
p393
(dp394
g6
(dp395
VTennis Court
p396
F0.41947192
sVLamp
p397
F0.31622207000000002
sVStairs
p398
F0.65193146000000002
sVDetails
p399
F0.43100717999999999
sVBalcony
p400
F0.86972713000000001
ssg12
(dp401
Vbuilding
p402
F0.95246790000000003
sVsteel
p403
F0.93546456
sVglass items
p404
F0.95920479999999997
sVbusiness
p405
F0.88780165
sVfamily
p406
F0.91850114000000005
sVhouse
p407
F0.89781915999999995
sVindustry
p408
F0.91222524999999999
sVmodern
p409
F0.8875786
sVcontemporary
p410
F0.8993565
sVroof
p411
F0.9698312
sVdesktop
p412
F0.90548896999999995
sVno person
p413
F0.96728987
sVwindow
p414
F0.95721173000000004
sVconstruction
p415
F0.90174920000000003
sVdesign
p416
F0.89416030000000002
sVarchitecture
p417
F0.96832750000000001
sVshadow
p418
F0.92566119999999996
sVexpression
p419
F0.97272840000000005
sVempty
p420
F0.89875804999999998
sVperspective
p421
F0.90231943000000003
sssS'b1990c5019e186ead87e26cf20f6e6637406862e24bb1b5b06a83c49.sid_pickle'
p422
(dp423
g6
(dp424
VBuilding
p425
F0.48835030000000001
sVSummer
p426
F0.35463040000000001
sVEntrance
p427
F0.65327555000000004
sVStairs
p428
F0.38071337
sVBalcony
p429
F0.91089690000000001
ssg12
(dp430
Vbuilding
p431
F0.96601150000000002
sVurban
p432
F0.96345440000000004
sVapartment
p433
F0.896976
sVglass items
p434
F0.90288603000000001
sVbusiness
p435
F0.94092745
sVfamily
p436
F0.98084020000000005
sVcity
p437
F0.95906919999999996
sVhouse
p438
F0.98112189999999999
sVtravel
p439
F0.90891814000000004
sVmodern
p440
F0.87026029999999999
sVsky
p441
F0.89680230000000005
sVcontemporary
p442
F0.94434819999999997
sVdowntown
p443
F0.87690352999999999
sVno person
p444
F0.97406053999999997
sVwindow
p445
F0.96177875999999995
sVstreet
p446
F0.95263299999999995
sVarchitecture
p447
F0.99500699999999997
sVfacade
p448
F0.87519429999999998
sVexpression
p449
F0.87911855999999999
sVbalcony
p450
F0.94934580000000002
sssS'18f7d7fd957ef5353ad94f3e0b35abe7729acfd96b29eaf8b3d958bf.sid_pickle'
p451
(dp452
g6
(dp453
VBuilding
p454
F0.34509086999999999
sVEntrance
p455
F0.61988144999999994
sVDaytime
p456
F0.31450850000000002
sVSurroundings
p457
F0.32755926000000002
sVTerrace
p458
F0.31977987000000002
sVView
p459
F0.30910808000000001
sVBalcony
p460
F0.6768826
sVDetails
p461
F0.31780059999999999
ssg12
(dp462
Vbuilding
p463
F0.96642910000000004
sVcity
p464
F0.88103160000000003
sVancient
p465
F0.92540467000000004
sVold
p466
F0.97576450000000003
sVwall
p467
F0.94774959999999997
sVhouse
p468
F0.97000770000000003
sVtravel
p469
F0.91512936
sVsky
p470
F0.88442147000000004
sVtown
p471
F0.86981832999999997
sVno person
p472
F0.87764513
sVwindow
p473
F0.97141809999999995
sVGothic
p474
F0.90923739999999997
sVarchitecture
p475
F0.98997259999999998
sVexterior
p476
F0.90785146000000005
sVvintage
p477
F0.87991699999999995
sVfacade
p478
F0.88947989999999999
sVdoor
p479
F0.89934590000000003
sVcastle
p480
F0.91706509999999997
sVtower
p481
F0.86610050000000005
sVretro
p482
F0.87670610000000004
sssS'19d8ccc2addac47b5659c9f95acb85c821f4dbde964c1a1678a90ed2.sid_pickle'
p483
(dp484
g6
(dp485
VChair
p486
F0.38335409999999998
sVLamp
p487
F0.35206997000000001
sVWedding
p488
F0.34182203
ssg12
(dp489
Vwood
p490
F0.81159203999999996
sVroom
p491
F0.90373062999999998
sVfamily
p492
F0.91016609999999998
sVshow
p493
F0.79524600000000001
sVwall
p494
F0.84873679999999996
sVhouse
p495
F0.84295094000000004
sVinside
p496
F0.94241666999999996
sVmodern
p497
F0.83238829999999997
sVcontemporary
p498
F0.90800433999999997
sVseat
p499
F0.87707626999999999
sVbusiness
p500
F0.80051874999999995
sVno person
p501
F0.94045210000000001
sVindoors
p502
F0.86692689999999994
sVdesign
p503
F0.76866347000000002
sVarchitecture
p504
F0.91129375000000001
sVtable
p505
F0.83108336000000005
sVchair
p506
F0.92105740000000003
sVdesktop
p507
F0.78827559999999997
sVempty
p508
F0.93916904999999995
sVfurniture
p509
F0.87888529999999998
sssS'f04d331317ac709f93efb0380a170101a284a8cae2caccd472464dc4.sid_pickle'
p510
(dp511
g6
(dp512
VEntrance
p513
F0.42117703000000001
sVNighttime
p514
F0.35189214000000002
sVDaytime
p515
F0.35189825000000002
sVFountain
p516
F0.39753442999999999
sVDetails
p517
F0.40283984
sVTennis Court
p518
F0.34521689999999999
sVView
p519
F0.3422056
sVBalcony
p520
F0.50828419999999996
ssg12
(dp521
Vbuilding
p522
F0.97083189999999997
sVcity
p523
F0.92636399999999997
sVart
p524
F0.85430205000000004
sVancient
p525
F0.88050870000000003
sVold
p526
F0.97414683999999996
sVfamily
p527
F0.89588699999999999
sVurban
p528
F0.86739560000000004
sVwall
p529
F0.93604940000000003
sVhouse
p530
F0.96734774000000001
sVtravel
p531
F0.93493360000000003
sVsky
p532
F0.92348850000000005
sVtown
p533
F0.89968680000000001
sVno person
p534
F0.90178614999999995
sVwindow
p535
F0.9439128
sVstreet
p536
F0.96756750000000002
sVarchitecture
p537
F0.99322069999999996
sVvintage
p538
F0.91986250000000003
sVmonochrome
p539
F0.90509709999999999
sVtower
p540
F0.85770670000000004
sVexpression
p541
F0.85549390000000003
sssS'9a247b268f2caac338d03a9d99d06487d8fb45c7f5831230895cfe34.sid_pickle'
p542
(dp543
g6
(dp544
VAutumn
p545
F0.53164599999999995
sVLogo
p546
F0.33206394
sVDetails
p547
F0.59926873000000003
sVReception
p548
F0.30682668000000002
sVWedding
p549
F0.96359510000000004
ssg12
(dp550
Vpetal
p551
F0.95015919999999998
sVromance
p552
F0.93442020000000003
sVdisjunct
p553
F0.95552079999999995
sVflower
p554
F0.98345565999999995
sVlove
p555
F0.9490653
sVgarden
p556
F0.88662620000000003
sVgift
p557
F0.91033363
sVnature
p558
F0.98195049999999995
sVbouquet
p559
F0.9740569
sVrose
p560
F0.9631419
sVblooming
p561
F0.8943004
sVtexture
p562
F0.90935549999999998
sVdesktop
p563
F0.94370390000000004
sVdecoration
p564
F0.94987520000000003
sVsingle
p565
F0.90769034999999998
sVflora
p566
F0.96495103999999998
sVwedding
p567
F0.97547099999999998
sVfloral
p568
F0.96456540000000002
sVleaf
p569
F0.93424695999999996
sVbeautiful
p570
F0.90569650000000002
sssS'2127004aa1eb35bfcb88b93e28ed1dbc4c0920eaaac3e6c0acff4d4a.sid_pickle'
p571
(dp572
g6
(dp573
VSummer
p574
F0.78687499999999999
sVYoga
p575
F0.45330239999999999
sVWater Sports
p576
F0.71291850000000001
sVAutumn
p577
F0.32857730000000002
sVSurroundings
p578
F0.45121080000000002
sVBeach
p579
F0.58965045000000005
sVBoat
p580
F0.62452465000000001
sVView
p581
F0.70558684999999999
ssg12
(dp582
Vexotic
p583
F0.93968419999999997
sVsummer
p584
F0.98690975000000003
sVturquoise
p585
F0.96835459999999995
sVidyllic
p586
F0.95057033999999996
sVnature
p587
F0.99284170000000005
sVisland
p588
F0.98198189999999996
sVtravel
p589
F0.97867729999999997
sVbay
p590
F0.94159985000000002
sVsky
p591
F0.96012414000000001
sVvacation
p592
F0.96091735
sVtropical
p593
F0.9818673
sVwater
p594
F0.99433315
sVsand
p595
F0.94697730000000002
sVseashore
p596
F0.96242607000000002
sVboat
p597
F0.94777029999999995
sVsea
p598
F0.97747850000000003
sVrelaxation
p599
F0.95572126000000002
sVocean
p600
F0.94393380000000005
sVbeach
p601
F0.96330640000000001
sVlandscape
p602
F0.9760046
ssss.