(dp1
S'travel'
p2
(dp3
Vstatus
p4
(dp5
Vcode
p6
I10000
sVdescription
p7
VOk
p8
ssVoutputs
p9
(lp10
(dp11
Vstatus
p12
(dp13
Vcode
p14
I10000
sVdescription
p15
VOk
p16
ssVcreated_at
p17
V2018-07-27T03:51:52.507973145Z
p18
sVinput
p19
(dp20
Vdata
p21
(dp22
Vimage
p23
(dp24
Vurl
p25
Vhttps://farm4.staticflickr.com/3831/10478972643_d9345336d4_b.jpg
p26
sssVid
p27
V8fa9a192b03c4cebabf0c4a1fad9c078
p28
ssVmodel
p29
(dp30
Vdisplay_name
p31
VTravel
p32
sVname
p33
Vtravel-v1.0
p34
sVoutput_info
p35
(dp36
Vtype_ext
p37
Vconcept
p38
sVmessage
p39
VShow output_info with: GET /models/{model_id}/output_info
p40
sVtype
p41
Vconcept
p42
ssVcreated_at
p43
V2016-09-17T22:18:59.955626Z
p44
sVapp_id
p45
Vmain
p46
sVmodel_version
p47
(dp48
Vstatus
p49
(dp50
Vcode
p51
I21100
sVdescription
p52
VModel trained successfully
p53
ssVcreated_at
p54
V2016-09-17T22:18:59.955626Z
p55
sVid
p56
Vd2ffbf9730fd41fea79063270847be82
p57
ssVid
p58
Veee28c313d69466f836ab83287a54ed9
p59
ssVdata
p60
(dp61
Vconcepts
p62
(lp63
(dp64
Vapp_id
p65
Vmain
p66
sVid
p67
Vai_zXzHH5WQ
p68
sVvalue
p69
F0.65532630000000003
sVname
p70
VStairs
p71
sa(dp72
Vapp_id
p73
Vmain
p74
sVid
p75
Vai_qDnbBFvp
p76
sVvalue
p77
F0.64251846000000001
sVname
p78
VBalcony
p79
sa(dp80
Vapp_id
p81
Vmain
p82
sVid
p83
Vai_NVNKLrCW
p84
sVvalue
p85
F0.39516908000000001
sVname
p86
VDetails
p87
sa(dp88
Vapp_id
p89
Vmain
p90
sVid
p91
Vai_sf6B79BS
p92
sVvalue
p93
F0.21924274999999999
sVname
p94
VSports & Activities
p95
sa(dp96
Vapp_id
p97
Vmain
p98
sVid
p99
Vai_RM5WcxGX
p100
sVvalue
p101
F0.19546504000000001
sVname
p102
VBar
p103
sa(dp104
Vapp_id
p105
Vmain
p106
sVid
p107
Vai_1gfzSbdC
p108
sVvalue
p109
F0.14973626000000001
sVname
p110
VEntrance
p111
sa(dp112
Vapp_id
p113
Vmain
p114
sVid
p115
Vai_NdWWGp3L
p116
sVvalue
p117
F0.13625507000000001
sVname
p118
VHallway
p119
sa(dp120
Vapp_id
p121
Vmain
p122
sVid
p123
Vai_cnHscbDs
p124
sVvalue
p125
F0.123121865
sVname
p126
VReception
p127
sa(dp128
Vapp_id
p129
Vmain
p130
sVid
p131
Vai_dXWGf1bz
p132
sVvalue
p133
F0.12082532
sVname
p134
VBuilding
p135
sa(dp136
Vapp_id
p137
Vmain
p138
sVid
p139
Vai_8lSXGvks
p140
sVvalue
p141
F0.10741114
sVname
p142
VView
p143
sa(dp144
Vapp_id
p145
Vmain
p146
sVid
p147
Vai_KpHGGkfp
p148
sVvalue
p149
F0.097022443999999999
sVname
p150
VFountain
p151
sa(dp152
Vapp_id
p153
Vmain
p154
sVid
p155
Vai_v5zlpKkc
p156
sVvalue
p157
F0.083707913999999994
sVname
p158
VTennis Court
p159
sa(dp160
Vapp_id
p161
Vmain
p162
sVid
p163
Vai_2QTpTbBt
p164
sVvalue
p165
F0.08310621
sVname
p166
VPeople
p167
sa(dp168
Vapp_id
p169
Vmain
p170
sVid
p171
Vai_CtFL0TP6
p172
sVvalue
p173
F0.078924984000000004
sVname
p174
VWellness & Spa
p175
sa(dp176
Vapp_id
p177
Vmain
p178
sVid
p179
Vai_TSHwchFP
p180
sVvalue
p181
F0.075238355000000007
sVname
p182
VCommunal Areas
p183
sa(dp184
Vapp_id
p185
Vmain
p186
sVid
p187
Vai_lt2nKTB2
p188
sVvalue
p189
F0.072666889999999998
sVname
p190
VTerrace
p191
sa(dp192
Vapp_id
p193
Vmain
p194
sVid
p195
Vai_MbpTFJxj
p196
sVvalue
p197
F0.067217626000000003
sVname
p198
VGarden
p199
sa(dp200
Vapp_id
p201
Vmain
p202
sVid
p203
Vai_VrkkZ5HT
p204
sVvalue
p205
F0.064104040000000001
sVname
p206
VLogo
p207
sa(dp208
Vapp_id
p209
Vmain
p210
sVid
p211
Vai_9qc0qQzd
p212
sVvalue
p213
F0.063205910000000004
sVname
p214
VBathroom Shower
p215
sa(dp216
Vapp_id
p217
Vmain
p218
sVid
p219
Vai_21rnC1M0
p220
sVvalue
p221
F0.060880526999999997
sVname
p222
VLamp
p223
sassVid
p224
Vc9191b124aa44ab1bf5ae4e1f7cef2d5
p225
sassS'general'
p226
(dp227
Vstatus
p228
(dp229
Vcode
p230
I10000
sVdescription
p231
VOk
p232
ssVoutputs
p233
(lp234
(dp235
Vstatus
p236
(dp237
Vcode
p238
I10000
sVdescription
p239
VOk
p240
ssVcreated_at
p241
V2018-07-27T03:51:51.699712148Z
p242
sVinput
p243
(dp244
Vdata
p245
(dp246
Vimage
p247
(dp248
Vurl
p249
Vhttps://farm4.staticflickr.com/3831/10478972643_d9345336d4_b.jpg
p250
sssVid
p251
Vf213faf80f6e4270bc556b71ee10034d
p252
ssVmodel
p253
(dp254
Vdisplay_name
p255
VGeneral
p256
sVname
p257
Vgeneral-v1.3
p258
sVoutput_info
p259
(dp260
Vtype_ext
p261
Vconcept
p262
sVmessage
p263
VShow output_info with: GET /models/{model_id}/output_info
p264
sVtype
p265
Vconcept
p266
ssVcreated_at
p267
V2016-03-09T17:11:39.608845Z
p268
sVapp_id
p269
Vmain
p270
sVmodel_version
p271
(dp272
Vstatus
p273
(dp274
Vcode
p275
I21100
sVdescription
p276
VModel trained successfully
p277
ssVcreated_at
p278
V2016-07-13T01:19:12.147644Z
p279
sVid
p280
Vaa9ca48295b37401f8af92ad1af0d91d
p281
ssVid
p282
Vaaa03c23b3724a16a56b629203edc62c
p283
ssVdata
p284
(dp285
Vconcepts
p286
(lp287
(dp288
Vapp_id
p289
Vmain
p290
sVid
p291
Vai_vMZvx6j4
p292
sVvalue
p293
F0.99131906000000003
sVname
p294
Vmonochrome
p295
sa(dp296
Vapp_id
p297
Vmain
p298
sVid
p299
Vai_VTlCx2f2
p300
sVvalue
p301
F0.95885089999999995
sVname
p302
Vwindow
p303
sa(dp304
Vapp_id
p305
Vmain
p306
sVid
p307
Vai_GjVpxXrs
p308
sVvalue
p309
F0.94530380000000003
sVname
p310
Vstreet
p311
sa(dp312
Vapp_id
p313
Vmain
p314
sVid
p315
Vai_FWCjC8jZ
p316
sVvalue
p317
F0.93575715999999998
sVname
p318
Varchitecture
p319
sa(dp320
Vapp_id
p321
Vmain
p322
sVid
p323
Vai_SRWvgkVW
p324
sVvalue
p325
F0.92726635999999996
sVname
p326
Vstep
p327
sa(dp328
Vapp_id
p329
Vmain
p330
sVid
p331
Vai_WBQfVV0p
p332
sVvalue
p333
F0.92522967
sVname
p334
Vcity
p335
sa(dp336
Vapp_id
p337
Vmain
p338
sVid
p339
Vai_mlrv94tv
p340
sVvalue
p341
F0.91220939999999995
sVname
p342
Vreflection
p343
sa(dp344
Vapp_id
p345
Vmain
p346
sVid
p347
Vai_786Zr311
p348
sVvalue
p349
F0.90402185999999995
sVname
p350
Vno person
p351
sa(dp352
Vapp_id
p353
Vmain
p354
sVid
p355
Vai_CpFBRWzD
p356
sVvalue
p357
F0.89730275000000004
sVname
p358
Vurban
p359
sa(dp360
Vapp_id
p361
Vmain
p362
sVid
p363
Vai_l8TKp2h5
p364
sVvalue
p365
F0.89370609999999995
sVname
p366
Vpeople
p367
sa(dp368
Vapp_id
p369
Vmain
p370
sVid
p371
Vai_HLmqFqBf
p372
sVvalue
p373
F0.89260656000000005
sVname
p374
Vtrain
p375
sa(dp376
Vapp_id
p377
Vmain
p378
sVid
p379
Vai_rsX6XWc2
p380
sVvalue
p381
F0.88829979999999997
sVname
p382
Vbuilding
p383
sa(dp384
Vapp_id
p385
Vmain
p386
sVid
p387
Vai_4Qjv5PTH
p388
sVvalue
p389
F0.88629186000000004
sVname
p390
Vmodern
p391
sa(dp392
Vapp_id
p393
Vmain
p394
sVid
p395
Vai_gB5qwrpr
p396
sVvalue
p397
F0.88500756000000003
sVname
p398
Vglass items
p399
sa(dp400
Vapp_id
p401
Vmain
p402
sVid
p403
Vai_XdwTxJz3
p404
sVvalue
p405
F0.88485575000000005
sVname
p406
Vsteel
p407
sa(dp408
Vapp_id
p409
Vmain
p410
sVid
p411
Vai_QWlb0ZTN
p412
sVvalue
p413
F0.87308030000000003
sVname
p414
Vblack and white
p415
sa(dp416
Vapp_id
p417
Vmain
p418
sVid
p419
Vai_Xxjc3MhT
p420
sVvalue
p421
F0.85607743000000003
sVname
p422
Vtransportation system
p423
sa(dp424
Vapp_id
p425
Vmain
p426
sVid
p427
Vai_n9vjC1jB
p428
sVvalue
p429
F0.85259974000000005
sVname
p430
Vlight
p431
sa(dp432
Vapp_id
p433
Vmain
p434
sVid
p435
Vai_Pf2b7clG
p436
sVvalue
p437
F0.84840894
sVname
p438
Vindoors
p439
sa(dp440
Vapp_id
p441
Vmain
p442
sVid
p443
Vai_SHNDcmJ3
p444
sVvalue
p445
F0.84490036999999996
sVname
p446
Vsubway system
p447
sassVid
p448
V53bf8ca373d241e08c4d4b4f90a9596d
p449
sass.