ccopy_reg
_reconstructor
p1
(crequests.models
Response
p2
c__builtin__
object
p3
NtRp4
(dp5
S'cookies'
p6
g1
(crequests.cookies
RequestsCookieJar
p7
g3
NtRp8
(dp9
S'_now'
p10
I1532662334
sS'_policy'
p11
(icookielib
DefaultCookiePolicy
p12
(dp13
S'strict_rfc2965_unverifiable'
p14
I01
sS'strict_ns_domain'
p15
I0
sS'_allowed_domains'
p16
NsS'rfc2109_as_netscape'
p17
NsS'rfc2965'
p18
I00
sS'strict_domain'
p19
I00
sg10
I1532662334
sS'strict_ns_set_path'
p20
I00
sS'strict_ns_unverifiable'
p21
I00
sS'strict_ns_set_initial_dollar'
p22
I00
sS'hide_cookie2'
p23
I00
sS'_blocked_domains'
p24
(tsS'netscape'
p25
I01
sbsS'_cookies'
p26
(dp27
sbsS'_content'
p28
S'{"photos":{"page":1,"pages":4250,"perpage":250,"total":"1062336","photo":[{"id":"34272324540","owner":"27302727@N03","secret":"d2173baa2d","server":"4182","farm":5,"title":"Drinks are ready","ispublic":1,"isfriend":0,"isfamily":0},{"id":"32668978381","owner":"61411963@N00","secret":"d17d42b82c","server":"644","farm":1,"title":"Graffiti Park at Castle Hill - Austin, TX","ispublic":1,"isfriend":0,"isfamily":0},{"id":"32410831381","owner":"29288836@N00","secret":"e00be971e0","server":"748","farm":1,"title":"A load of Cobras","ispublic":1,"isfriend":0,"isfamily":0},{"id":"16724705714","owner":"39578820@N02","secret":"51f0944042","server":"8781","farm":9,"title":"Hearts of Glass","ispublic":1,"isfriend":0,"isfamily":0},{"id":"16291443630","owner":"69730369@N06","secret":"b691988570","server":"8677","farm":9,"title":"Vibrancy by Craig Hein, one of the Guitar town Austin art project Guitars on Congress Ave","ispublic":1,"isfriend":0,"isfamily":0},{"id":"11076087925","owner":"53055958@N00","secret":"275851c00c","server":"2837","farm":3,"title":"coconut marzipan cupcake with fruit","ispublic":1,"isfriend":0,"isfamily":0},{"id":"9607997430","owner":"51035555243@N01","secret":"53bcbe67b5","server":"5462","farm":6,"title":"Chrome","ispublic":1,"isfriend":0,"isfamily":0},{"id":"8857638531","owner":"53055958@N00","secret":"32f026f6e8","server":"7281","farm":8,"title":"green milkweed dof","ispublic":1,"isfriend":0,"isfamily":0},{"id":"8219989409","owner":"29312295@N06","secret":"98e2ffb8cd","server":"8204","farm":9,"title":"Isolation","ispublic":1,"isfriend":0,"isfamily":0},{"id":"7081334961","owner":"53055958@N00","secret":"da0549975f","server":"5338","farm":6,"title":"Barton Creek Greenbelt: green blur","ispublic":1,"isfriend":0,"isfamily":0},{"id":"6333392692","owner":"88345903@N00","secret":"876bb0147d","server":"6119","farm":7,"title":"morning","ispublic":1,"isfriend":0,"isfamily":0},{"id":"3474410633","owner":"8442442@N03","secret":"ed181a48e5","server":"3604","farm":4,"title":"Life in Austin, Texas","ispublic":1,"isfriend":0,"isfamily":0},{"id":"3106329813","owner":"28029377@N08","secret":"48fd2a515c","server":"3271","farm":4,"title":"Downtown Austin Skyline | HDR","ispublic":1,"isfriend":0,"isfamily":0},{"id":"785731915","owner":"88345903@N00","secret":"2e9daa4bbb","server":"1173","farm":2,"title":"failure","ispublic":1,"isfriend":0,"isfamily":0},{"id":"336970579","owner":"79644790@N00","secret":"b8fa09a076","server":"125","farm":1,"title":"Life Without Oxygen","ispublic":1,"isfriend":0,"isfamily":0},{"id":"24093486468","owner":"7259517@N03","secret":"6397057d59","server":"4496","farm":5,"title":"Watch Your Step","ispublic":1,"isfriend":0,"isfamily":0},{"id":"28835358371","owner":"82336316@N03","secret":"9f259ddbf0","server":"8613","farm":9,"title":"Hundreds and Thousands. And Millions.","ispublic":1,"isfriend":0,"isfamily":0},{"id":"28286438513","owner":"8352571@N04","secret":"ca3100352c","server":"8587","farm":9,"title":"Blue Filigree","ispublic":1,"isfriend":0,"isfamily":0},{"id":"25253474245","owner":"7259517@N03","secret":"8a9522fea1","server":"1510","farm":2,"title":"Showboat Drive-In","ispublic":1,"isfriend":0,"isfamily":0},{"id":"11856968953","owner":"59089258@N07","secret":"c42f91711a","server":"3743","farm":4,"title":"After the rain {9\\/365} (Explored)","ispublic":1,"isfriend":0,"isfamily":0},{"id":"9221582890","owner":"88245539@N05","secret":"681cbd0ab8","server":"3727","farm":4,"title":"On Golden Pond - 0743","ispublic":1,"isfriend":0,"isfamily":0},{"id":"9219460612","owner":"73082817@N03","secret":"7688e0ef24","server":"7350","farm":8,"title":"Another sunny day...","ispublic":1,"isfriend":0,"isfamily":0},{"id":"8109735141","owner":"81798565@N00","secret":"690d1c6777","server":"8327","farm":9,"title":"The Stardust Motel, US 90, Marfa, TX 79843","ispublic":1,"isfriend":0,"isfamily":0},{"id":"7023938029","owner":"10789832@N00","secret":"39739477f2","server":"7052","farm":8,"title":"Blue Morpho","ispublic":1,"isfriend":0,"isfamily":0},{"id":"6696669427","owner":"30989531@N06","secret":"1791ffc244","server":"7005","farm":8,"title":"Wood working cabin HDR","ispublic":1,"isfriend":0,"isfamily":0},{"id":"3566121753","owner":"59984889@N00","secret":"cd5459eda4","server":"3636","farm":4,"title":"Old Liquor","ispublic":1,"isfriend":0,"isfamily":0},{"id":"2216533909","owner":"10359714@N03","secret":"07eef6ed13","server":"2282","farm":3,"title":"19 High School 12","ispublic":1,"isfriend":0,"isfamily":0},{"id":"308477162","owner":"79644790@N00","secret":"5aafe9dc1e","server":"100","farm":1,"title":"Master of the Storms","ispublic":1,"isfriend":0,"isfamily":0},{"id":"42832041544","owner":"51017931@N02","secret":"4c4cce8ba1","server":"839","farm":1,"title":"FORT ALAMO","ispublic":1,"isfriend":0,"isfamily":0},{"id":"28601059767","owner":"29554651@N05","secret":"91eb43930c","server":"1781","farm":2,"title":"broad-striped forceptail","ispublic":1,"isfriend":0,"isfamily":0},{"id":"29603960768","owner":"93512100@N08","secret":"21c74290ed","server":"1806","farm":2,"title":"Tricolored Heron, Brazoria NWR","ispublic":1,"isfriend":0,"isfamily":0},{"id":"29587310978","owner":"29554651@N05","secret":"edf604c1c1","server":"1787","farm":2,"title":"comanche skimmer","ispublic":1,"isfriend":0,"isfamily":0},{"id":"42552478485","owner":"110307689@N03","secret":"631d7c392e","server":"1763","farm":2,"title":"Bluebonnets","ispublic":1,"isfriend":0,"isfamily":0},{"id":"29561928288","owner":"51017931@N02","secret":"4045f1c74f","server":"1781","farm":2,"title":"RIVER WALK RESTAURANTS","ispublic":1,"isfriend":0,"isfamily":0},{"id":"43377063592","owner":"72045896@N04","secret":"73c2ba4121","server":"923","farm":1,"title":"Shove Up Mullan Pass","ispublic":1,"isfriend":0,"isfamily":0},{"id":"42482286065","owner":"93512100@N08","secret":"629e500e4c","server":"923","farm":1,"title":"Crested Caracara","ispublic":1,"isfriend":0,"isfamily":0},{"id":"43334734672","owner":"29554651@N05","secret":"546cd53a6f","server":"1782","farm":2,"title":"cobra clubtail","ispublic":1,"isfriend":0,"isfamily":0},{"id":"41547568510","owner":"93512100@N08","secret":"2dbd8e9484","server":"840","farm":1,"title":"Nothing Like a Black Vulture on a Gloomy Day","ispublic":1,"isfriend":0,"isfamily":0},{"id":"29475741878","owner":"53854975@N07","secret":"3026310e76","server":"1826","farm":2,"title":"Cardinal","ispublic":1,"isfriend":0,"isfamily":0},{"id":"42419737175","owner":"157378646@N05","secret":"436e7396b7","server":"834","farm":1,"title":"Faded Beauty","ispublic":1,"isfriend":0,"isfamily":0},{"id":"43258200322","owner":"93512100@N08","secret":"60aa36ae8e","server":"836","farm":1,"title":"Newly Hatched...","ispublic":1,"isfriend":0,"isfamily":0},{"id":"29389929928","owner":"61082884@N04","secret":"136f17341c","server":"913","farm":1,"title":"Huqqa","ispublic":1,"isfriend":0,"isfamily":0},{"id":"41437353720","owner":"34517255@N00","secret":"fefc9a06b0","server":"1805","farm":2,"title":"Yellow-crowned Night Heron","ispublic":1,"isfriend":0,"isfamily":0},{"id":"43225721101","owner":"53055958@N00","secret":"256856f06f","server":"914","farm":1,"title":"5 Granddaughter snail shell crown","ispublic":1,"isfriend":0,"isfamily":0},{"id":"43225721201","owner":"53055958@N00","secret":"fe6255c624","server":"1787","farm":2,"title":"2 Grandson snail shell crown","ispublic":1,"isfriend":0,"isfamily":0},{"id":"29314416168","owner":"9631607@N08","secret":"c757d8b26d","server":"836","farm":1,"title":"Barton Creek Upstream from the Flats - Austin - Texas","ispublic":1,"isfriend":0,"isfamily":0},{"id":"28299052217","owner":"62003279@N00","secret":"2a93c575a6","server":"1826","farm":2,"title":"Ennis Bluebonnet trails 2018","ispublic":1,"isfriend":0,"isfamily":0},{"id":"43118611172","owner":"65068817@N05","secret":"361fcbdf4e","server":"923","farm":1,"title":"Three Trees...","ispublic":1,"isfriend":0,"isfamily":0},{"id":"41297046530","owner":"97737300@N03","secret":"90aef16b1e","server":"1808","farm":2,"title":"Baby Skunks #2","ispublic":1,"isfriend":0,"isfamily":0},{"id":"43101884711","owner":"96614638@N00","secret":"cd03bbc1c0","server":"1765","farm":2,"title":"Oak Tree in Spring","ispublic":1,"isfriend":0,"isfamily":0},{"id":"41270464580","owner":"93512100@N08","secret":"8acf961e61","server":"1767","farm":2,"title":"Black-bellied Whistling Duck","ispublic":1,"isfriend":0,"isfamily":0},{"id":"43074889371","owner":"146839877@N06","secret":"077a175c15","server":"846","farm":1,"title":"Stormclouds Crossing the Road","ispublic":1,"isfriend":0,"isfamily":0},{"id":"42165419635","owner":"106879657@N08","secret":"9fed33bf04","server":"1805","farm":2,"title":"In the distance...","ispublic":1,"isfriend":0,"isfamily":0},{"id":"42310054494","owner":"157378646@N05","secret":"07980a4e89","server":"1801","farm":2,"title":"Watch in Focus","ispublic":1,"isfriend":0,"isfamily":0},{"id":"28157425847","owner":"93512100@N08","secret":"b39fb02268","server":"1807","farm":2,"title":"Who You Callin\' Common?!","ispublic":1,"isfriend":0,"isfamily":0},{"id":"28144273627","owner":"47121680@N00","secret":"af99a003d1","server":"1802","farm":2,"title":"Bike Rack #jcutrer","ispublic":1,"isfriend":0,"isfamily":0},{"id":"41186236050","owner":"146839877@N06","secret":"304dd9d34c","server":"1823","farm":2,"title":"Oklahoma Panhandle Storm","ispublic":1,"isfriend":0,"isfamily":0},{"id":"42276130404","owner":"47035380@N00","secret":"0ece0d258e","server":"1789","farm":2,"title":"Prickly Pear Northern Cardinal","ispublic":1,"isfriend":0,"isfamily":0},{"id":"42088741385","owner":"53055958@N00","secret":"7a312e6b86","server":"1827","farm":2,"title":"1 Mayfield Park pink lotus","ispublic":1,"isfriend":0,"isfamily":0},{"id":"42940623662","owner":"53055958@N00","secret":"d970b13f0d","server":"1779","farm":2,"title":"4 Mayfield Park peach water lily","ispublic":1,"isfriend":0,"isfamily":0},{"id":"41180021330","owner":"53055958@N00","secret":"12b05f17f8","server":"1768","farm":2,"title":"8 Mayfield Park rise","ispublic":1,"isfriend":0,"isfamily":0},{"id":"42087352405","owner":"93512100@N08","secret":"e8b9d20bde","server":"1789","farm":2,"title":"Special Delivery...","ispublic":1,"isfriend":0,"isfamily":0},{"id":"29096638268","owner":"63801486@N00","secret":"d2ec3d9a33","server":"1788","farm":2,"title":"Link Falls -- Bull Creek","ispublic":1,"isfriend":0,"isfamily":0},{"id":"42060647355","owner":"93512100@N08","secret":"edb026a45f","server":"1815","farm":2,"title":"White-faced Ibis","ispublic":1,"isfriend":0,"isfamily":0},{"id":"42236572194","owner":"146839877@N06","secret":"bac6a0e583","server":"1766","farm":2,"title":"I Saw the Light","ispublic":1,"isfriend":0,"isfamily":0},{"id":"29081215568","owner":"157378646@N05","secret":"8c82063b32","server":"1783","farm":2,"title":"Coneflowers in Black and White","ispublic":1,"isfriend":0,"isfamily":0},{"id":"29074740328","owner":"93512100@N08","secret":"5d26fa4de8","server":"896","farm":1,"title":"Dawn on Shoveler Pond","ispublic":1,"isfriend":0,"isfamily":0},{"id":"41126175050","owner":"29554651@N05","secret":"043b285893","server":"1785","farm":2,"title":"striped saddlebags","ispublic":1,"isfriend":0,"isfamily":0},{"id":"41121557420","owner":"93512100@N08","secret":"02967aa7b1","server":"1829","farm":2,"title":"Ibis at Dawn, Arahuac NWR","ispublic":1,"isfriend":0,"isfamily":0},{"id":"41117546310","owner":"22007612@N05","secret":"67ea899683","server":"1827","farm":2,"title":"Jordan Peterson","ispublic":1,"isfriend":0,"isfamily":0},{"id":"42924871811","owner":"146839877@N06","secret":"4527c74f03","server":"1784","farm":2,"title":"Last Light","ispublic":1,"isfriend":0,"isfamily":0},{"id":"42868858572","owner":"7259517@N03","secret":"58438370e3","server":"1821","farm":2,"title":"Radar Love","ispublic":1,"isfriend":0,"isfamily":0},{"id":"28992756638","owner":"28222066@N00","secret":"5475ce0635","server":"1751","farm":2,"title":"Shadow Hits A Brick Wall","ispublic":1,"isfriend":0,"isfamily":0},{"id":"41936777705","owner":"29554651@N05","secret":"e9fd4d9b9a","server":"1782","farm":2,"title":"halloween pennant","ispublic":1,"isfriend":0,"isfamily":0},{"id":"42119920964","owner":"29554651@N05","secret":"5f5504969f","server":"899","farm":1,"title":"five-striped leaftail","ispublic":1,"isfriend":0,"isfamily":0},{"id":"42766044322","owner":"29554651@N05","secret":"00f0145713","server":"883","farm":1,"title":"checkered setwing","ispublic":1,"isfriend":0,"isfamily":0},{"id":"42766043042","owner":"29554651@N05","secret":"d095dc9749","server":"900","farm":1,"title":"thornbush dasher","ispublic":1,"isfriend":0,"isfamily":0},{"id":"28941030168","owner":"60527064@N00","secret":"0dc35a9da6","server":"1734","farm":2,"title":"Austin A40 in detail, Pt. II","ispublic":1,"isfriend":0,"isfamily":0},{"id":"28933696138","owner":"60527064@N00","secret":"1a6b1e9ce3","server":"1757","farm":2,"title":"Austin A40 in detail, Pt. I","ispublic":1,"isfriend":0,"isfamily":0},{"id":"42754752482","owner":"30418455@N00","secret":"120c060fd0","server":"1724","farm":2,"title":"BOBOLINK 17","ispublic":1,"isfriend":0,"isfamily":0},{"id":"40955547770","owner":"142289055@N04","secret":"8968bbd99d","server":"891","farm":1,"title":"Austin Central Library","ispublic":1,"isfriend":0,"isfamily":0},{"id":"28889791868","owner":"28222066@N00","secret":"82d20bbd96","server":"1725","farm":2,"title":"ROT - Congress Avenue - 2018","ispublic":1,"isfriend":0,"isfamily":0},{"id":"42749024201","owner":"41701047@N08","secret":"6f4e6872a5","server":"1740","farm":2,"title":"Someone designed this?","ispublic":1,"isfriend":0,"isfamily":0},{"id":"42744700611","owner":"29554651@N05","secret":"8c6b53694e","server":"1723","farm":2,"title":"gray-waisted skimmer","ispublic":1,"isfriend":0,"isfamily":0},{"id":"40892481430","owner":"14723335@N05","secret":"48a5988eda","server":"1746","farm":2,"title":"Airport Crews and Equipment Getting a Flight Ready","ispublic":1,"isfriend":0,"isfamily":0},{"id":"42583009521","owner":"29554651@N05","secret":"2fe74e34d1","server":"1747","farm":2,"title":"gray-waisted skimmer","ispublic":1,"isfriend":0,"isfamily":0},{"id":"42583005441","owner":"29554651@N05","secret":"9c46504feb","server":"1721","farm":2,"title":"broad-striped forceptail","ispublic":1,"isfriend":0,"isfamily":0},{"id":"40761893150","owner":"53055958@N00","secret":"15455957e5","server":"1723","farm":2,"title":"4 Zilker Botanical Gardens: purple","ispublic":1,"isfriend":0,"isfamily":0},{"id":"40761893200","owner":"53055958@N00","secret":"1805f3b7b3","server":"1753","farm":2,"title":"3 Zilker Botanical Gardens: fern glory","ispublic":1,"isfriend":0,"isfamily":0},{"id":"41848022524","owner":"53055958@N00","secret":"63fb5a063a","server":"1730","farm":2,"title":"8 Zilker Botanical Gardens: standing still","ispublic":1,"isfriend":0,"isfamily":0},{"id":"28696277418","owner":"53055958@N00","secret":"29ec8e4389","server":"1738","farm":2,"title":"13 Zilker Botanical Gardens: here and there","ispublic":1,"isfriend":0,"isfamily":0},{"id":"42500586692","owner":"60591747@N06","secret":"ee57be4070","server":"1747","farm":2,"title":"4227, Austin TX, 16 March 2018","ispublic":1,"isfriend":0,"isfamily":0},{"id":"28672018178","owner":"29554651@N05","secret":"0a6cd3fa12","server":"1726","farm":2,"title":"gray-waisted skimmer","ispublic":1,"isfriend":0,"isfamily":0},{"id":"42487043262","owner":"14785777@N07","secret":"aa6177c702","server":"1748","farm":2,"title":"Austin: Barton Creek Grenbelt","ispublic":1,"isfriend":0,"isfamily":0},{"id":"42486983552","owner":"14785777@N07","secret":"93b33b3d7a","server":"1721","farm":2,"title":"Austin: Barton Creek Grenbelt","ispublic":1,"isfriend":0,"isfamily":0},{"id":"42536139721","owner":"157378646@N05","secret":"06be23d38b","server":"1735","farm":2,"title":"Stylized Hibiscus","ispublic":1,"isfriend":0,"isfamily":0},{"id":"27614712327","owner":"157378646@N05","secret":"da8775c39c","server":"902","farm":1,"title":"Watch Close-up","ispublic":1,"isfriend":0,"isfamily":0},{"id":"42426868972","owner":"157378646@N05","secret":"bac960c64e","server":"1740","farm":2,"title":"Inside the Ellsworth Kelly Austin","ispublic":1,"isfriend":0,"isfamily":0},{"id":"41755184474","owner":"157378646@N05","secret":"404cd77c85","server":"1730","farm":2,"title":"Inside the Ellsworth Kelly Austin","ispublic":1,"isfriend":0,"isfamily":0},{"id":"41755183694","owner":"157378646@N05","secret":"bae8f34a7d","server":"901","farm":1,"title":"Windows of Light","ispublic":1,"isfriend":0,"isfamily":0},{"id":"42426866632","owner":"157378646@N05","secret":"e44e9cbd27","server":"1739","farm":2,"title":"Windows of Light","ispublic":1,"isfriend":0,"isfamily":0},{"id":"41574847135","owner":"157378646@N05","secret":"1230b85441","server":"1739","farm":2,"title":"Ellsworth Kelly Austin","ispublic":1,"isfriend":0,"isfamily":0},{"id":"42438491571","owner":"40848766@N06","secret":"1860e823e2","server":"901","farm":1,"title":"Modified Austin","ispublic":1,"isfriend":0,"isfamily":0},{"id":"42352340312","owner":"68702123@N05","secret":"ca4b29ae43","server":"1729","farm":2,"title":"Sunset Lake Travis","ispublic":1,"isfriend":0,"isfamily":0},{"id":"41646853824","owner":"34517255@N00","secret":"943f8fb272","server":"1751","farm":2,"title":"Dancing Spoonbill","ispublic":1,"isfriend":0,"isfamily":0},{"id":"28482696208","owner":"105144895@N07","secret":"194378a736","server":"1738","farm":2,"title":"Lady Bird Johnson Wildflower Center 7","ispublic":1,"isfriend":0,"isfamily":0},{"id":"42320349671","owner":"29554651@N05","secret":"03fb4350fb","server":"949","farm":1,"title":"swift river cruiser","ispublic":1,"isfriend":0,"isfamily":0},{"id":"41396940635","owner":"29554651@N05","secret":"3b24694327","server":"950","farm":1,"title":"eastern ringtail","ispublic":1,"isfriend":0,"isfamily":0},{"id":"42243566512","owner":"28222066@N00","secret":"7cc198c368","server":"886","farm":1,"title":"Relaxing Space at Batch","ispublic":1,"isfriend":0,"isfamily":0},{"id":"28407513438","owner":"157378646@N05","secret":"1e6ceb6643","server":"980","farm":1,"title":"Texas Thistles","ispublic":1,"isfriend":0,"isfamily":0},{"id":"42209311272","owner":"150948125@N03","secret":"1b2196c5a3","server":"973","farm":1,"title":"A dinner in Texas","ispublic":1,"isfriend":0,"isfamily":0},{"id":"42231816031","owner":"157378646@N05","secret":"5af0011d4d","server":"944","farm":1,"title":"Antelope Horns in Infrared","ispublic":1,"isfriend":0,"isfamily":0},{"id":"42185316562","owner":"157378646@N05","secret":"dff1e22ab7","server":"904","farm":1,"title":"\\"Mountain Man\\"","ispublic":1,"isfriend":0,"isfamily":0},{"id":"41510071014","owner":"157378646@N05","secret":"60dc6535d9","server":"970","farm":1,"title":"Thistle in Yellow","ispublic":1,"isfriend":0,"isfamily":0},{"id":"42185315152","owner":"157378646@N05","secret":"a3da38c141","server":"976","farm":1,"title":"Mexican Hat in Infrared","ispublic":1,"isfriend":0,"isfamily":0},{"id":"41510070114","owner":"157378646@N05","secret":"38e55f3e70","server":"903","farm":1,"title":"Dragonfly among Flowers","ispublic":1,"isfriend":0,"isfamily":0},{"id":"41457402274","owner":"157378646@N05","secret":"2e2c1016b8","server":"903","farm":1,"title":"Ellsworth Kelly Austin","ispublic":1,"isfriend":0,"isfamily":0},{"id":"41455924624","owner":"29554651@N05","secret":"8606667091","server":"949","farm":1,"title":"twelve-spotted skimmer","ispublic":1,"isfriend":0,"isfamily":0},{"id":"41218070295","owner":"53055958@N00","secret":"8a747320c9","server":"908","farm":1,"title":"4 Granddaughter: oh no","ispublic":1,"isfriend":0,"isfamily":0},{"id":"41218070435","owner":"53055958@N00","secret":"629fc666fb","server":"964","farm":1,"title":"1 Granddaughter: close up","ispublic":1,"isfriend":0,"isfamily":0},{"id":"41218070345","owner":"53055958@N00","secret":"764b07b468","server":"965","farm":1,"title":"3 Granddaughter: pink flowers","ispublic":1,"isfriend":0,"isfamily":0},{"id":"41398855854","owner":"53055958@N00","secret":"db92b2749d","server":"826","farm":1,"title":"6 Granddaughter: wondering Explore","ispublic":1,"isfriend":0,"isfamily":0},{"id":"41217449925","owner":"28222066@N00","secret":"b10e26b3d0","server":"912","farm":1,"title":"Temporary View","ispublic":1,"isfriend":0,"isfamily":0},{"id":"27246303417","owner":"14785777@N07","secret":"a41f51382f","server":"903","farm":1,"title":"Lemon beebalm (Monarda citriodora)","ispublic":1,"isfriend":0,"isfamily":0},{"id":"41396634654","owner":"14785777@N07","secret":"b72e97ca6c","server":"912","farm":1,"title":"Austin: Barton Creek Greenbelt","ispublic":1,"isfriend":0,"isfamily":0},{"id":"41215869535","owner":"56894807@N00","secret":"3ce8dc5dae","server":"972","farm":1,"title":"Vernon Tornado","ispublic":1,"isfriend":0,"isfamily":0},{"id":"42091666351","owner":"157378646@N05","secret":"6e86df2e50","server":"951","farm":1,"title":"Texas Star in Faux Infrared","ispublic":1,"isfriend":0,"isfamily":0},{"id":"27187341077","owner":"92907873@N04","secret":"b1a9a94de0","server":"961","farm":1,"title":"White-faced Ibis","ispublic":1,"isfriend":0,"isfamily":0},{"id":"41989094311","owner":"47035380@N00","secret":"610059d307","server":"952","farm":1,"title":"Crested Caracara\'s Prize","ispublic":1,"isfriend":0,"isfamily":0},{"id":"41948690771","owner":"51035555243@N01","secret":"2b764a98d3","server":"911","farm":1,"title":"Eight O\'Clock Sunrise","ispublic":1,"isfriend":0,"isfamily":0},{"id":"40970311655","owner":"133871881@N05","secret":"4f8c7755f0","server":"954","farm":1,"title":"Stick and Stone","ispublic":1,"isfriend":0,"isfamily":0},{"id":"27963483818","owner":"61082884@N04","secret":"8d558ee28c","server":"824","farm":1,"title":"Monarch Butterfly (5)","ispublic":1,"isfriend":0,"isfamily":0},{"id":"41106638884","owner":"97737300@N03","secret":"bf8bebcd01","server":"831","farm":1,"title":"American Kestrel  Falco sparverius","ispublic":1,"isfriend":0,"isfamily":0},{"id":"41106543274","owner":"108878997@N03","secret":"2ec7af9d24","server":"972","farm":1,"title":"Arrival","ispublic":1,"isfriend":0,"isfamily":0},{"id":"26924907497","owner":"47035380@N00","secret":"3699af4cf9","server":"830","farm":1,"title":"2018 Anahuac NWR Rail Walk","ispublic":1,"isfriend":0,"isfamily":0},{"id":"41787202141","owner":"53055958@N00","secret":"088c7dfb57","server":"967","farm":1,"title":"Family Time: sunshine","ispublic":1,"isfriend":0,"isfamily":0},{"id":"26902486117","owner":"47035380@N00","secret":"02993f0e00","server":"826","farm":1,"title":"Nesting Great Egrets - High Island, Texas","ispublic":1,"isfriend":0,"isfamily":0},{"id":"40815945405","owner":"29554651@N05","secret":"44f050b118","server":"867","farm":1,"title":"roseate skimmer","ispublic":1,"isfriend":0,"isfamily":0},{"id":"26823944877","owner":"133871881@N05","secret":"8fb9bc3c9b","server":"952","farm":1,"title":"Young and Old","ispublic":1,"isfriend":0,"isfamily":0},{"id":"40761674815","owner":"28369035@N05","secret":"80c0ed8650","server":"860","farm":1,"title":"Lonestar Roundup - Flamin\' 8","ispublic":1,"isfriend":0,"isfamily":0},{"id":"27782122388","owner":"157378646@N05","secret":"e5862b4040","server":"896","farm":1,"title":"Lady Justice","ispublic":1,"isfriend":0,"isfamily":0},{"id":"27756581608","owner":"157378646@N05","secret":"a99a3d4b96","server":"894","farm":1,"title":"Stained Glass Up Close","ispublic":1,"isfriend":0,"isfamily":0},{"id":"40719332725","owner":"28794527@N00","secret":"2aeb02c30b","server":"798","farm":1,"title":"Austin-Healey","ispublic":1,"isfriend":0,"isfamily":0},{"id":"41592988271","owner":"28222066@N00","secret":"56b5dcdf5d","server":"892","farm":1,"title":"THUNDERCLOUD SUBS - Burnet Road","ispublic":1,"isfriend":0,"isfamily":0},{"id":"26710836477","owner":"67849928@N05","secret":"49f2c89ca1","server":"865","farm":1,"title":"Golden Bluebonnets","ispublic":1,"isfriend":0,"isfamily":0},{"id":"40656420625","owner":"34517255@N00","secret":"a15d5a694d","server":"832","farm":1,"title":"Smith Oaks Rookery","ispublic":1,"isfriend":0,"isfamily":0},{"id":"41431052062","owner":"28222066@N00","secret":"e35dde97df","server":"800","farm":1,"title":"Disappearing View","ispublic":1,"isfriend":0,"isfamily":0},{"id":"26508124527","owner":"110307689@N03","secret":"6be076806e","server":"877","farm":1,"title":"Beautiful Texas Bluebonnets","ispublic":1,"isfriend":0,"isfamily":0},{"id":"40664579014","owner":"28222066@N00","secret":"95568b6195","server":"866","farm":1,"title":"6TH Street Voodoo","ispublic":1,"isfriend":0,"isfamily":0},{"id":"26470861907","owner":"23521012@N02","secret":"309b19b0ae","server":"802","farm":1,"title":"Blanton Staircase","ispublic":1,"isfriend":0,"isfamily":0},{"id":"41296638302","owner":"51035555243@N01","secret":"fa6edd8c31","server":"820","farm":1,"title":"Route US 66","ispublic":1,"isfriend":0,"isfamily":0},{"id":"41258118491","owner":"157378646@N05","secret":"7ebcd91f8c","server":"801","farm":1,"title":"Attention","ispublic":1,"isfriend":0,"isfamily":0},{"id":"28085478196","owner":"62941576@N00","secret":"dfbc4eecd2","server":"7311","farm":8,"title":"Independence Celebrations","ispublic":1,"isfriend":0,"isfamily":0},{"id":"16839192545","owner":"89629638@N06","secret":"f9738fed6f","server":"7625","farm":8,"title":"Evening Fun","ispublic":1,"isfriend":0,"isfamily":0},{"id":"15025198812","owner":"29554651@N05","secret":"5a01332acc","server":"5572","farm":6,"title":"four-striped leaftail","ispublic":1,"isfriend":0,"isfamily":0},{"id":"13926600508","owner":"34465399@N04","secret":"e8b8183968","server":"2899","farm":3,"title":"\\"Dazed and Confused\\" film location. . . it\'s Top Notch, y\'all","ispublic":1,"isfriend":0,"isfamily":0},{"id":"11165653733","owner":"75638737@N04","secret":"05dc563988","server":"5471","farm":6,"title":"Spider House Cafe\\/Sideshow Tattoo, Fruth Street, Austin, TX","ispublic":1,"isfriend":0,"isfamily":0},{"id":"10750400765","owner":"53055958@N00","secret":"9974d72a48","server":"7291","farm":8,"title":"Austin Powwow HDR: perfection","ispublic":1,"isfriend":0,"isfamily":0},{"id":"9398884172","owner":"53055958@N00","secret":"af64e9e420","server":"2824","farm":3,"title":"Austin parking lot","ispublic":1,"isfriend":0,"isfamily":0},{"id":"9116023781","owner":"45888329@N08","secret":"df2e653afb","server":"3708","farm":4,"title":"Farewell..","ispublic":1,"isfriend":0,"isfamily":0},{"id":"7025681549","owner":"79644790@N00","secret":"7acdc7facb","server":"7047","farm":8,"title":"Shima","ispublic":1,"isfriend":0,"isfamily":0},{"id":"4175932476","owner":"14489732@N00","secret":"5288c1aaa8","server":"2553","farm":3,"title":"Driskill Christmas Star","ispublic":1,"isfriend":0,"isfamily":0},{"id":"3968161026","owner":"88345903@N00","secret":"8f02169acc","server":"2480","farm":3,"title":"pink and blue","ispublic":1,"isfriend":0,"isfamily":0},{"id":"3748415416","owner":"88345903@N00","secret":"dc41c4324f","server":"2566","farm":3,"title":"bike","ispublic":1,"isfriend":0,"isfamily":0},{"id":"3064897529","owner":"28029377@N08","secret":"2fd50bda36","server":"3154","farm":4,"title":"Austin 360 Condominiums Tower - Part deux","ispublic":1,"isfriend":0,"isfamily":0},{"id":"2027552994","owner":"88345903@N00","secret":"1db60a703d","server":"2192","farm":3,"title":"a thrice told tale","ispublic":1,"isfriend":0,"isfamily":0},{"id":"425610558","owner":"79644790@N00","secret":"c3168f8945","server":"155","farm":1,"title":"The Wedding Guest","ispublic":1,"isfriend":0,"isfamily":0},{"id":"32115134406","owner":"8352571@N04","secret":"4224f6cbd0","server":"281","farm":1,"title":"On Point","ispublic":1,"isfriend":0,"isfamily":0},{"id":"30434302232","owner":"61082884@N04","secret":"13715468eb","server":"5584","farm":6,"title":"Migrating Monarch","ispublic":1,"isfriend":0,"isfamily":0},{"id":"29055707203","owner":"61943224@N04","secret":"bd99e9d527","server":"8053","farm":9,"title":"Dallas - Doris Longwing","ispublic":1,"isfriend":0,"isfamily":0},{"id":"27210503361","owner":"88245539@N05","secret":"5535dcf46d","server":"7379","farm":8,"title":"Ocotillo","ispublic":1,"isfriend":0,"isfamily":0},{"id":"17216402621","owner":"126251698@N03","secret":"c0d3121cef","server":"8808","farm":9,"title":"Margaret Hunt Hill Bridge, Dallas, Texas, U.S.A. \\/ Architect:  Santiago Calatrava","ispublic":1,"isfriend":0,"isfamily":0},{"id":"15920111858","owner":"128150503@N02","secret":"f39bdd021c","server":"7518","farm":8,"title":"Final Approach","ispublic":1,"isfriend":0,"isfamily":0},{"id":"15332770996","owner":"34113024@N02","secret":"08e373fd92","server":"2948","farm":3,"title":"Sunrise at the Plano Balloon Festival - 2014","ispublic":1,"isfriend":0,"isfamily":0},{"id":"14562273498","owner":"10789832@N00","secret":"c9d42eedd5","server":"3851","farm":4,"title":"Scissor-tailed Flycatchers","ispublic":1,"isfriend":0,"isfamily":0},{"id":"8678369602","owner":"30552467@N08","secret":"be93b304d1","server":"8125","farm":9,"title":"Ruby-crowned Kinglet (Regulus calendula)","ispublic":1,"isfriend":0,"isfamily":0},{"id":"8310923674","owner":"96525092@N00","secret":"1a329ea954","server":"8220","farm":9,"title":"Chihuly at the Dallas Arboreturm","ispublic":1,"isfriend":0,"isfamily":0},{"id":"8205179508","owner":"46195191@N00","secret":"f85424ce5e","server":"8062","farm":9,"title":"Formula One - USGP COTA","ispublic":1,"isfriend":0,"isfamily":0},{"id":"8053391968","owner":"44458692@N07","secret":"3107443acc","server":"8313","farm":9,"title":"Hundertwasserhaus, Wien","ispublic":1,"isfriend":0,"isfamily":0},{"id":"6845061871","owner":"96614638@N00","secret":"01feb9dbaa","server":"7009","farm":8,"title":"Katia\'s Smile","ispublic":1,"isfriend":0,"isfamily":0},{"id":"6154556513","owner":"35888901@N00","secret":"7b0a91ce29","server":"6175","farm":7,"title":"Riverwalk","ispublic":1,"isfriend":0,"isfamily":0},{"id":"5985711664","owner":"57683134@N02","secret":"d0cbf5ea19","server":"6028","farm":7,"title":"T-Storm (HDR) - Seabrook, Texas","ispublic":1,"isfriend":0,"isfamily":0},{"id":"4895644375","owner":"33669907@N08","secret":"ede9048d24","server":"4098","farm":5,"title":"I WANNA BE BIG","ispublic":1,"isfriend":0,"isfamily":0},{"id":"4181253005","owner":"42268376@N06","secret":"54de56faa0","server":"4039","farm":5,"title":"SEE YOU IN 2010, MY FLICKR FRIENDS","ispublic":1,"isfriend":0,"isfamily":0},{"id":"4138894450","owner":"23373808@N07","secret":"b6419d86a7","server":"2717","farm":3,"title":"almost like flying","ispublic":1,"isfriend":0,"isfamily":0},{"id":"3822095022","owner":"9689747@N04","secret":"750c7f1375","server":"3517","farm":4,"title":"The Torch of Friendship","ispublic":1,"isfriend":0,"isfamily":0},{"id":"3245240173","owner":"75619307@N00","secret":"9ff27e61f2","server":"3447","farm":4,"title":"Lightning Sunset in H-Town","ispublic":1,"isfriend":0,"isfamily":0},{"id":"41577390410","owner":"51017931@N02","secret":"019dd70c5e","server":"1769","farm":2,"title":"SAN ANTONIO RIVER","ispublic":1,"isfriend":0,"isfamily":0},{"id":"41512503860","owner":"51017931@N02","secret":"40478c5907","server":"1803","farm":2,"title":"SAN ANTONIO TX 1","ispublic":1,"isfriend":0,"isfamily":0},{"id":"42174509005","owner":"29554651@N05","secret":"dab02b8408","server":"914","farm":1,"title":"male ringed forceptail (explored 6\\/30\\/2018)","ispublic":1,"isfriend":0,"isfamily":0},{"id":"42043244085","owner":"29554651@N05","secret":"7b3533c8c5","server":"1840","farm":2,"title":"gray-waisted skimmer","ispublic":1,"isfriend":0,"isfamily":0},{"id":"42186751294","owner":"126774126@N07","secret":"d15b35af5a","server":"880","farm":1,"title":"Peterbilt 359","ispublic":1,"isfriend":0,"isfamily":0},{"id":"42076531474","owner":"29554651@N05","secret":"5060480d57","server":"1738","farm":2,"title":"neon skimmer","ispublic":1,"isfriend":0,"isfamily":0},{"id":"42076530034","owner":"29554651@N05","secret":"ca4420645b","server":"1758","farm":2,"title":"comanche skimmer","ispublic":1,"isfriend":0,"isfamily":0},{"id":"42749527151","owner":"70835292@N00","secret":"2257b3923f","server":"1722","farm":2,"title":"Baby Great Egrets","ispublic":1,"isfriend":0,"isfamily":0},{"id":"42683031361","owner":"29554651@N05","secret":"d2a4925105","server":"1744","farm":2,"title":"gray-waisted skimmer","ispublic":1,"isfriend":0,"isfamily":0},{"id":"42683030021","owner":"29554651@N05","secret":"7d5172e29c","server":"1734","farm":2,"title":"neon skimmer","ispublic":1,"isfriend":0,"isfamily":0},{"id":"42621665262","owner":"29554651@N05","secret":"04a4faf1a5","server":"1752","farm":2,"title":"broad-striped forceptail","ispublic":1,"isfriend":0,"isfamily":0},{"id":"40861959870","owner":"29554651@N05","secret":"23d48c45c4","server":"1725","farm":2,"title":"comanche skimmer","ispublic":1,"isfriend":0,"isfamily":0},{"id":"42493586232","owner":"29554651@N05","secret":"2f74441ba2","server":"1736","farm":2,"title":"great pondhawk","ispublic":1,"isfriend":0,"isfamily":0},{"id":"40727876390","owner":"157378646@N05","secret":"ffba145085","server":"1760","farm":2,"title":"Common Sunflower","ispublic":1,"isfriend":0,"isfamily":0},{"id":"40687354990","owner":"29554651@N05","secret":"59dbaf6695","server":"1724","farm":2,"title":"broad-striped forceptail","ispublic":1,"isfriend":0,"isfamily":0},{"id":"42429904552","owner":"29554651@N05","secret":"955bd61855","server":"890","farm":1,"title":"comet darner","ispublic":1,"isfriend":0,"isfamily":0},{"id":"42429903132","owner":"29554651@N05","secret":"0f24b88d6b","server":"1734","farm":2,"title":"comanche skimmer","ispublic":1,"isfriend":0,"isfamily":0},{"id":"42393629672","owner":"29554651@N05","secret":"52392bdbe6","server":"1751","farm":2,"title":"jade clubtail","ispublic":1,"isfriend":0,"isfamily":0},{"id":"42415139511","owner":"157378646@N05","secret":"1a6e4567ae","server":"881","farm":1,"title":"The Battle Casts","ispublic":1,"isfriend":0,"isfamily":0},{"id":"41619917654","owner":"29554651@N05","secret":"662a4d1b50","server":"1728","farm":2,"title":"flag-tailed spinylegs","ispublic":1,"isfriend":0,"isfamily":0},{"id":"41619915934","owner":"29554651@N05","secret":"f3e8fbb6df","server":"877","farm":1,"title":"four-striped leaftail","ispublic":1,"isfriend":0,"isfamily":0},{"id":"42300767281","owner":"150948125@N03","secret":"d13ce3e002","server":"960","farm":1,"title":"When will I be loved? You are listening to 97.1 Country Legends Radio. The temperature today is 88\\u00b0F in San Antonio","ispublic":1,"isfriend":0,"isfamily":0},{"id":"41396942215","owner":"29554651@N05","secret":"4aa51b2f81","server":"972","farm":1,"title":"twelve-spotted skimmer","ispublic":1,"isfriend":0,"isfamily":0},{"id":"28407508218","owner":"157378646@N05","secret":"84853d85d1","server":"979","farm":1,"title":"WldFlwrs_062","ispublic":1,"isfriend":0,"isfamily":0},{"id":"42229349471","owner":"126193119@N08","secret":"8bc5a2324d","server":"903","farm":1,"title":"From the Top","ispublic":1,"isfriend":0,"isfamily":0},{"id":"42153380102","owner":"29554651@N05","secret":"0c8ecdf314","server":"906","farm":1,"title":"eastern ringtail","ispublic":1,"isfriend":0,"isfamily":0},{"id":"28204845538","owner":"157378646@N05","secret":"2576e14bcf","server":"943","farm":1,"title":"Dayflower","ispublic":1,"isfriend":0,"isfamily":0},{"id":"27167318677","owner":"29554651@N05","secret":"aabfc66d43","server":"963","farm":1,"title":"halloween pennant","ispublic":1,"isfriend":0,"isfamily":0},{"id":"27167316097","owner":"29554651@N05","secret":"293ac60cb2","server":"826","farm":1,"title":"four-spotted pennant","ispublic":1,"isfriend":0,"isfamily":0},{"id":"42006611421","owner":"47035380@N00","secret":"124841fa78","server":"976","farm":1,"title":"Green Jay in Greenery","ispublic":1,"isfriend":0,"isfamily":0},{"id":"40187913950","owner":"29554651@N05","secret":"bc7b4bc3ea","server":"912","farm":1,"title":"neon skimmer","ispublic":1,"isfriend":0,"isfamily":0},{"id":"41892299981","owner":"29554651@N05","secret":"7ecdc86272","server":"960","farm":1,"title":"halloween pennant","ispublic":1,"isfriend":0,"isfamily":0},{"id":"27024241957","owner":"29554651@N05","secret":"41275fb911","server":"972","farm":1,"title":"needhams skimmer","ispublic":1,"isfriend":0,"isfamily":0},{"id":"26996426547","owner":"29554651@N05","secret":"779130e01e","server":"904","farm":1,"title":"jade clubtail male","ispublic":1,"isfriend":0,"isfamily":0},{"id":"26996425807","owner":"29554651@N05","secret":"994128327a","server":"962","farm":1,"title":"jade clubtail female","ispublic":1,"isfriend":0,"isfamily":0},{"id":"26996425187","owner":"29554651@N05","secret":"a2b5eebd9e","server":"947","farm":1,"title":"band-winged dragonlet","ispublic":1,"isfriend":0,"isfamily":0},{"id":"41847589141","owner":"70835292@N00","secret":"4b97ef8156","server":"830","farm":1,"title":"Baby Great Egrets","ispublic":1,"isfriend":0,"isfamily":0},{"id":"26860538187","owner":"29554651@N05","secret":"fd394bac63","server":"966","farm":1,"title":"comet darner","ispublic":1,"isfriend":0,"isfamily":0},{"id":"26860536697","owner":"29554651@N05","secret":"b15a8b9c55","server":"966","farm":1,"title":"great pondhawk","ispublic":1,"isfriend":0,"isfamily":0},{"id":"26860535867","owner":"29554651@N05","secret":"a127990954","server":"961","farm":1,"title":"eastern amberwing","ispublic":1,"isfriend":0,"isfamily":0},{"id":"40807774745","owner":"8352571@N04","secret":"25a7378595","server":"971","farm":1,"title":"Birdie, No Eagle","ispublic":1,"isfriend":0,"isfamily":0},{"id":"39886160310","owner":"29554651@N05","secret":"0e0904fc0e","server":"946","farm":1,"title":"eastern ringtail","ispublic":1,"isfriend":0,"isfamily":0},{"id":"39886158740","owner":"29554651@N05","secret":"7ff3740689","server":"943","farm":1,"title":"prince baskettail","ispublic":1,"isfriend":0,"isfamily":0},{"id":"39886156650","owner":"29554651@N05","secret":"b3d48ae226","server":"961","farm":1,"title":"checkered setwing","ispublic":1,"isfriend":0,"isfamily":0},{"id":"41660588411","owner":"8352571@N04","secret":"232aab85e2","server":"842","farm":1,"title":"Teal Time","ispublic":1,"isfriend":0,"isfamily":0},{"id":"39798152620","owner":"29554651@N05","secret":"d85e37bd39","server":"909","farm":1,"title":"roseate skimmer","ispublic":1,"isfriend":0,"isfamily":0},{"id":"39750315670","owner":"29554651@N05","secret":"1b23785588","server":"910","farm":1,"title":"20180411-DSC05782","ispublic":1,"isfriend":0,"isfamily":0},{"id":"26649649767","owner":"90187887@N03","secret":"ef1101cee3","server":"844","farm":1,"title":"probable geometry","ispublic":1,"isfriend":0,"isfamily":0},{"id":"40767626014","owner":"96448056@N05","secret":"602df97854","server":"889","farm":1,"title":"Downtown Austin - Stripes on Stripes","ispublic":1,"isfriend":0,"isfamily":0},{"id":"41472310201","owner":"157378646@N05","secret":"8efc9e7a1a","server":"786","farm":1,"title":"Oak Leaves in Black and White","ispublic":1,"isfriend":0,"isfamily":0},{"id":"41452184421","owner":"29554651@N05","secret":"021fe1437e","server":"868","farm":1,"title":"band-winged dragonlet","ispublic":1,"isfriend":0,"isfamily":0},{"id":"41452183001","owner":"29554651@N05","secret":"9c161dc7b8","server":"810","farm":1,"title":"black setwing","ispublic":1,"isfriend":0,"isfamily":0},{"id":"27576612178","owner":"97737300@N03","secret":"2895037ac1","server":"876","farm":1,"title":"Roadrunner and Bluebonnets","ispublic":1,"isfriend":0,"isfamily":0},{"id":"26568001667","owner":"28369035@N05","secret":"ed917b570a","server":"867","farm":1,"title":"Lonestar Roundup - Grilled!!","ispublic":1,"isfriend":0,"isfamily":0},{"id":"26559386737","owner":"29554651@N05","secret":"3a004aa123","server":"881","farm":1,"title":"20180411-DSC05870","ispublic":1,"isfriend":0,"isfamily":0},{"id":"41369529182","owner":"157378646@N05","secret":"6f64c13150","server":"806","farm":1,"title":"Red yucca","ispublic":1,"isfriend":0,"isfamily":0},{"id":"41409654761","owner":"29554651@N05","secret":"9e342f26c1","server":"795","farm":1,"title":"cyrano darner","ispublic":1,"isfriend":0,"isfamily":0},{"id":"41353565712","owner":"157378646@N05","secret":"17cc9208ae","server":"890","farm":1,"title":"Pink Evening Buttercups","ispublic":1,"isfriend":0,"isfamily":0},{"id":"40481993545","owner":"11961261@N07","secret":"21ceae2fae","server":"798","farm":1,"title":"Blue Behind Cotton","ispublic":1,"isfriend":0,"isfamily":0},{"id":"41306632621","owner":"28369035@N05","secret":"6fb8f7869a","server":"804","farm":1,"title":"Hot Rod","ispublic":1,"isfriend":0,"isfamily":0},{"id":"26433375757","owner":"60591747@N06","secret":"a2d7e9d843","server":"809","farm":1,"title":"4227, Austin TX, 16 March 2018","ispublic":1,"isfriend":0,"isfamily":0},{"id":"41257888262","owner":"46897148@N02","secret":"6db8162a95","server":"864","farm":1,"title":"DSC_8107e ~ Lightning","ispublic":1,"isfriend":0,"isfamily":0},{"id":"41265143581","owner":"133871881@N05","secret":"d395a62c3d","server":"787","farm":1,"title":"The Hug","ispublic":1,"isfriend":0,"isfamily":0}]},"stat":"ok"}'
p29
sS'encoding'
p30
NsS'url'
p31
Vhttps://api.flickr.com/services/rest/?sort=relevance&has_geo=true&nojsoncallback=1&format=json&tags=austin%2C+texas&method=flickr.photos.search&content_type=1&per_page=500&api_key=92cd8d03af0235c7f0301a87dabedb55&page=1&accuracy=10
p32
sS'status_code'
p33
I200
sS'request'
p34
g1
(crequests.models
PreparedRequest
p35
g3
NtRp36
(dp37
S'body'
p38
Nsg31
S'https://api.flickr.com/services/rest/?sort=relevance&has_geo=true&nojsoncallback=1&format=json&tags=austin%2C+texas&method=flickr.photos.search&content_type=1&per_page=500&api_key=92cd8d03af0235c7f0301a87dabedb55&page=1&accuracy=10'
p39
sS'hooks'
p40
(dp41
S'response'
p42
(lp43
ssS'headers'
p44
g1
(crequests.structures
CaseInsensitiveDict
p45
g3
NtRp46
(dp47
S'_store'
p48
curllib3.packages.ordered_dict
OrderedDict
p49
((lp50
(lp51
S'connection'
p52
a(S'Connection'
p53
S'keep-alive'
p54
tp55
aa(lp56
S'accept-encoding'
p57
a(S'Accept-Encoding'
p58
S'gzip, deflate'
tp59
aa(lp60
S'accept'
p61
a(S'Accept'
p62
S'*/*'
p63
tp64
aa(lp65
S'user-agent'
p66
a(S'User-Agent'
p67
S'python-requests/2.18.4'
tp68
aatRp69
sbsS'_body_position'
p70
Nsg26
g1
(g7
g3
NtRp71
(dp72
g10
I1532662331
sg11
(icookielib
DefaultCookiePolicy
p73
(dp74
g14
I01
sg15
I0
sg16
Nsg17
Nsg18
I00
sg19
I00
sg10
I1532662331
sg20
I00
sg21
I00
sg22
I00
sg23
I00
sg24
(tsg25
I01
sbsg26
(dp75
sbsS'method'
p76
S'GET'
p77
sbsS'elapsed'
p78
cdatetime
timedelta
p79
(I0
I2
I658180
tRp80
sg44
g1
(g45
g3
NtRp81
(dp82
g48
g49
((lp83
(lp84
S'date'
p85
a(S'Date'
p86
S'Fri, 27 Jul 2018 03:32:13 GMT'
p87
tp88
aa(lp89
S'content-type'
p90
a(S'Content-Type'
p91
S'application/json'
p92
tp93
aa(lp94
S'content-length'
p95
a(S'Content-Length'
p96
S'9578'
p97
tp98
aa(lp99
S'p3p'
p100
a(S'P3P'
p101
S'policyref="https://policies.yahoo.com/w3c/p3p.xml", CP="CAO DSP COR CUR ADM DEV TAI PSA PSD IVAi IVDi CONi TELo OTPi OUR DELi SAMi OTRi UNRi PUBi IND PHY ONL UNI PUR FIN COM NAV INT DEM CNT STA POL HEA PRE LOC GOV"'
p102
tp103
aa(lp104
S'x-content-type-options'
p105
a(S'X-Content-Type-Options'
p106
S'nosniff'
p107
tp108
aa(lp109
S'cache-control'
p110
a(S'Cache-Control'
p111
S'private'
p112
tp113
aa(lp114
S'x-served-by'
p115
a(S'X-Served-By'
p116
S'www247.flickr.bf1.yahoo.com'
p117
tp118
aa(lp119
S'x-frame-options'
p120
a(S'X-Frame-Options'
p121
S'SAMEORIGIN'
p122
tp123
aa(lp124
S'vary'
p125
a(S'Vary'
p126
S'Accept-Encoding'
p127
tp128
aa(lp129
S'content-encoding'
p130
a(S'Content-Encoding'
p131
S'gzip'
p132
tp133
aa(lp134
S'age'
p135
a(S'Age'
p136
S'2'
tp137
aa(lp138
S'via'
p139
a(S'Via'
p140
S'http/1.1 fts114.flickr.bf1.yahoo.com (ApacheTrafficServer [cMsSf ]), http/1.1 e3.ycpi.daa.yahoo.com (ApacheTrafficServer [cMsSf ])'
p141
tp142
aa(lp143
S'server'
p144
a(S'Server'
p145
S'ATS'
p146
tp147
aa(lp148
S'connection'
p149
a(S'Connection'
p150
S'keep-alive'
p151
tp152
aa(lp153
S'strict-transport-security'
p154
a(S'Strict-Transport-Security'
p155
S'max-age=15552000'
p156
tp157
aa(lp158
S'expect-ct'
p159
a(S'Expect-CT'
p160
S'max-age=31536000, report-uri="http://csp.yahoo.com/beacon/csp?src=yahoocom-expect-ct-report-only"'
p161
tp162
aa(lp163
S'public-key-pins-report-only'
p164
a(S'Public-Key-Pins-Report-Only'
p165
S'max-age=2592000; pin-sha256="2fRAUXyxl4A1/XHrKNBmc8bTkzA7y4FB/GLJuNAzCqY="; pin-sha256="2oALgLKofTmeZvoZ1y/fSZg7R9jPMix8eVA6DH4o/q8="; pin-sha256="Gtk3r1evlBrs0hG3fm3VoM19daHexDWP//OCmeeMr5M="; pin-sha256="I/Lt/z7ekCWanjD0Cvj5EqXls2lOaThEA0H2Bg4BT/o="; pin-sha256="JbQbUG5JMJUoI6brnx0x3vZF6jilxsapbXGVfjhN8Fg="; pin-sha256="SVqWumuteCQHvVIaALrOZXuzVVVeS7f4FGxxu6V+es4="; pin-sha256="UZJDjsNp1+4M5x9cbbdflB779y5YRBcV6Z6rBMLIrO4="; pin-sha256="Wd8xe/qfTwq3ylFNd3IpaqLHZbh2ZNCLluVzmeNkcpw="; pin-sha256="WoiWRyIOVNa9ihaBciRSC7XHjliYS9VwUGOIud4PB18="; pin-sha256="cAajgxHlj7GTSEIzIYIQxmEloOSoJq7VOaxWHfv72QM="; pin-sha256="dolnbtzEBnELx/9lOEQ22e6OZO/QNb6VSSX2XHA3E7A="; pin-sha256="i7WTqTvh0OioIruIfFR4kMPnBqrS2rdiVPl/s2uC/CY="; pin-sha256="iduNzFNKpwYZ3se/XV+hXcbUonlLw09QPa6AYUwpu4M="; pin-sha256="lnsM2T/O9/J84sJFdnrpsFp3awZJ+ZZbYpCWhGloaHI="; pin-sha256="r/mIkG3eEpVdm+u/ko/cwxzOMo1bk4TyHIlByibiA5E="; pin-sha256="uUwZgwDOxcBXrQcntwu+kYFpkiVkOaezL0WYEZ3anJc="; includeSubdomains; report-uri="http://csp.yahoo.com/beacon/csp?src=yahoocom-hpkp-report-only"'
p166
tp167
aatRp168
sbsS'reason'
p169
S'OK'
p170
sS'history'
p171
(lp172
sb.