(dp1
S'travel'
p2
(dp3
Vstatus
p4
(dp5
Vcode
p6
I10000
sVdescription
p7
VOk
p8
ssVoutputs
p9
(lp10
(dp11
Vstatus
p12
(dp13
Vcode
p14
I10000
sVdescription
p15
VOk
p16
ssVcreated_at
p17
V2018-07-27T04:04:35.718070980Z
p18
sVinput
p19
(dp20
Vdata
p21
(dp22
Vimage
p23
(dp24
Vurl
p25
Vhttps://farm1.staticflickr.com/955/27142691777_a4a5c75652_b.jpg
p26
sssVid
p27
Veebf53c3374043098380d6ca88865a5f
p28
ssVmodel
p29
(dp30
Vdisplay_name
p31
VTravel
p32
sVname
p33
Vtravel-v1.0
p34
sVoutput_info
p35
(dp36
Vtype_ext
p37
Vconcept
p38
sVmessage
p39
VShow output_info with: GET /models/{model_id}/output_info
p40
sVtype
p41
Vconcept
p42
ssVcreated_at
p43
V2016-09-17T22:18:59.955626Z
p44
sVapp_id
p45
Vmain
p46
sVmodel_version
p47
(dp48
Vstatus
p49
(dp50
Vcode
p51
I21100
sVdescription
p52
VModel trained successfully
p53
ssVcreated_at
p54
V2016-09-17T22:18:59.955626Z
p55
sVid
p56
Vd2ffbf9730fd41fea79063270847be82
p57
ssVid
p58
Veee28c313d69466f836ab83287a54ed9
p59
ssVdata
p60
(dp61
Vconcepts
p62
(lp63
(dp64
Vapp_id
p65
Vmain
p66
sVid
p67
Vai_T4GN2Cdl
p68
sVvalue
p69
F0.69926860000000002
sVname
p70
VWater Sports
p71
sa(dp72
Vapp_id
p73
Vmain
p74
sVid
p75
Vai_XB2b9m4v
p76
sVvalue
p77
F0.58603095999999999
sVname
p78
VSummer
p79
sa(dp80
Vapp_id
p81
Vmain
p82
sVid
p83
Vai_zdZZcgX8
p84
sVvalue
p85
F0.47411522
sVname
p86
VSurroundings
p87
sa(dp88
Vapp_id
p89
Vmain
p90
sVid
p91
Vai_q4dFqXVs
p92
sVvalue
p93
F0.42234632
sVname
p94
VBoat
p95
sa(dp96
Vapp_id
p97
Vmain
p98
sVid
p99
Vai_TCZdTr6B
p100
sVvalue
p101
F0.3761099
sVname
p102
VYoga
p103
sa(dp104
Vapp_id
p105
Vmain
p106
sVid
p107
Vai_8lSXGvks
p108
sVvalue
p109
F0.36663947000000002
sVname
p110
VView
p111
sa(dp112
Vapp_id
p113
Vmain
p114
sVid
p115
Vai_VvRQQ216
p116
sVvalue
p117
F0.29071817
sVname
p118
VBeach
p119
sa(dp120
Vapp_id
p121
Vmain
p122
sVid
p123
Vai_4NvhWszJ
p124
sVvalue
p125
F0.18748087999999999
sVname
p126
VSnow & Ski Sports
p127
sa(dp128
Vapp_id
p129
Vmain
p130
sVid
p131
Vai_J2x9qKdS
p132
sVvalue
p133
F0.17025302
sVname
p134
VAnimals
p135
sa(dp136
Vapp_id
p137
Vmain
p138
sVid
p139
Vai_hjvL4F9K
p140
sVvalue
p141
F0.15820893999999999
sVname
p142
VWinter
p143
sa(dp144
Vapp_id
p145
Vmain
p146
sVid
p147
Vai_hmSzCZd5
p148
sVvalue
p149
F0.15113304999999999
sVname
p150
VDaytime
p151
sa(dp152
Vapp_id
p153
Vmain
p154
sVid
p155
Vai_4jNtvp5v
p156
sVvalue
p157
F0.11570272
sVname
p158
VAutumn
p159
sa(dp160
Vapp_id
p161
Vmain
p162
sVid
p163
Vai_2jkxl4Fz
p164
sVvalue
p165
F0.084720210000000004
sVname
p166
VSpring
p167
sa(dp168
Vapp_id
p169
Vmain
p170
sVid
p171
Vai_Gg9h60xC
p172
sVvalue
p173
F0.065975870000000006
sVname
p174
VFood & Beverages
p175
sa(dp176
Vapp_id
p177
Vmain
p178
sVid
p179
Vai_KpHGGkfp
p180
sVvalue
p181
F0.060254913
sVname
p182
VFountain
p183
sa(dp184
Vapp_id
p185
Vmain
p186
sVid
p187
Vai_2QTpTbBt
p188
sVvalue
p189
F0.057069577000000003
sVname
p190
VPeople
p191
sa(dp192
Vapp_id
p193
Vmain
p194
sVid
p195
Vai_zF1MvGHt
p196
sVvalue
p197
F0.048025110000000003
sVname
p198
VTelevision
p199
sa(dp200
Vapp_id
p201
Vmain
p202
sVid
p203
Vai_8v2Tm2Gl
p204
sVvalue
p205
F0.045985796000000002
sVname
p206
VHot Tub
p207
sa(dp208
Vapp_id
p209
Vmain
p210
sVid
p211
Vai_sf6B79BS
p212
sVvalue
p213
F0.043569280000000002
sVname
p214
VSports & Activities
p215
sa(dp216
Vapp_id
p217
Vmain
p218
sVid
p219
Vai_1lSRr75N
p220
sVvalue
p221
F0.041463733000000003
sVname
p222
VIn-Room Kitchenette
p223
sassVid
p224
Vf83f991c0ed34ec4a6d5ba24efb8f4c7
p225
sassS'general'
p226
(dp227
Vstatus
p228
(dp229
Vcode
p230
I10000
sVdescription
p231
VOk
p232
ssVoutputs
p233
(lp234
(dp235
Vstatus
p236
(dp237
Vcode
p238
I10000
sVdescription
p239
VOk
p240
ssVcreated_at
p241
V2018-07-27T04:04:35.318624864Z
p242
sVinput
p243
(dp244
Vdata
p245
(dp246
Vimage
p247
(dp248
Vurl
p249
Vhttps://farm1.staticflickr.com/955/27142691777_a4a5c75652_b.jpg
p250
sssVid
p251
V6c92db5518d94238b25e02d0088b273a
p252
ssVmodel
p253
(dp254
Vdisplay_name
p255
VGeneral
p256
sVname
p257
Vgeneral-v1.3
p258
sVoutput_info
p259
(dp260
Vtype_ext
p261
Vconcept
p262
sVmessage
p263
VShow output_info with: GET /models/{model_id}/output_info
p264
sVtype
p265
Vconcept
p266
ssVcreated_at
p267
V2016-03-09T17:11:39.608845Z
p268
sVapp_id
p269
Vmain
p270
sVmodel_version
p271
(dp272
Vstatus
p273
(dp274
Vcode
p275
I21100
sVdescription
p276
VModel trained successfully
p277
ssVcreated_at
p278
V2016-07-13T01:19:12.147644Z
p279
sVid
p280
Vaa9ca48295b37401f8af92ad1af0d91d
p281
ssVid
p282
Vaaa03c23b3724a16a56b629203edc62c
p283
ssVdata
p284
(dp285
Vconcepts
p286
(lp287
(dp288
Vapp_id
p289
Vmain
p290
sVid
p291
Vai_BlL0wSQh
p292
sVvalue
p293
F0.99544310000000003
sVname
p294
Vwater
p295
sa(dp296
Vapp_id
p297
Vmain
p298
sVid
p299
Vai_MTvKbKJv
p300
sVvalue
p301
F0.97698635
sVname
p302
Vlandscape
p303
sa(dp304
Vapp_id
p305
Vmain
p306
sVid
p307
Vai_786Zr311
p308
sVvalue
p309
F0.97535559999999999
sVname
p310
Vno person
p311
sa(dp312
Vapp_id
p313
Vmain
p314
sVid
p315
Vai_VRmbGVWh
p316
sVvalue
p317
F0.96782290000000004
sVname
p318
Vtravel
p319
sa(dp320
Vapp_id
p321
Vmain
p322
sVid
p323
Vai_VJXZtfth
p324
sVvalue
p325
F0.96469057000000002
sVname
p326
Vmountain
p327
sa(dp328
Vapp_id
p329
Vmain
p330
sVid
p331
Vai_7bRKqWjp
p332
sVvalue
p333
F0.96443003000000005
sVname
p334
Vsea
p335
sa(dp336
Vapp_id
p337
Vmain
p338
sVid
p339
Vai_3DwNCm6R
p340
sVvalue
p341
F0.96352289999999996
sVname
p342
Vlake
p343
sa(dp344
Vapp_id
p345
Vmain
p346
sVid
p347
Vai_jWFxtpH1
p348
sVvalue
p349
F0.96210414
sVname
p350
Vseashore
p351
sa(dp352
Vapp_id
p353
Vmain
p354
sVid
p355
Vai_ZrPNDjxN
p356
sVvalue
p357
F0.95074029999999998
sVname
p358
Vdaylight
p359
sa(dp360
Vapp_id
p361
Vmain
p362
sVid
p363
Vai_xZgtf58b
p364
sVvalue
p365
F0.94103676000000003
sVname
p366
Vocean
p367
sa(dp368
Vapp_id
p369
Vmain
p370
sVid
p371
Vai_Zmhsv0Ch
p372
sVvalue
p373
F0.93728685
sVname
p374
Voutdoors
p375
sa(dp376
Vapp_id
p377
Vmain
p378
sVid
p379
Vai_T92C0C63
p380
sVvalue
p381
F0.90793769999999996
sVname
p382
Vscenic
p383
sa(dp384
Vapp_id
p385
Vmain
p386
sVid
p387
Vai_lNsKfmXb
p388
sVvalue
p389
F0.89867353000000005
sVname
p390
Vsky
p391
sa(dp392
Vapp_id
p393
Vmain
p394
sVid
p395
Vai_tBcWlsCp
p396
sVvalue
p397
F0.89631000000000005
sVname
p398
Vnature
p399
sa(dp400
Vapp_id
p401
Vmain
p402
sVid
p403
Vai_8Qw6PFLZ
p404
sVvalue
p405
F0.89563333999999994
sVname
p406
Vrecreation
p407
sa(dp408
Vapp_id
p409
Vmain
p410
sVid
p411
Vai_l09WQRHT
p412
sVvalue
p413
F0.88250697
sVname
p414
Vsnow
p415
sa(dp416
Vapp_id
p417
Vmain
p418
sVid
p419
Vai_mlrv94tv
p420
sVvalue
p421
F0.88058970000000003
sVname
p422
Vreflection
p423
sa(dp424
Vapp_id
p425
Vmain
p426
sVid
p427
Vai_jlzP4C8j
p428
sVvalue
p429
F0.86675584000000006
sVname
p430
Visland
p431
sa(dp432
Vapp_id
p433
Vmain
p434
sVid
p435
Vai_J1hw9SFJ
p436
sVvalue
p437
F0.84876220000000002
sVname
p438
Vbeach
p439
sa(dp440
Vapp_id
p441
Vmain
p442
sVid
p443
Vai_fZxMPT5l
p444
sVvalue
p445
F0.84496800000000005
sVname
p446
Vriver
p447
sassVid
p448
V27d6ea4447e4434a8101e26ba43c08ad
p449
sass.