(dp1
S'travel'
p2
(dp3
Vstatus
p4
(dp5
Vcode
p6
I10000
sVdescription
p7
VOk
p8
ssVoutputs
p9
(lp10
(dp11
Vstatus
p12
(dp13
Vcode
p14
I10000
sVdescription
p15
VOk
p16
ssVcreated_at
p17
V2018-07-27T03:42:18.893755634Z
p18
sVinput
p19
(dp20
Vdata
p21
(dp22
Vimage
p23
(dp24
Vurl
p25
Vhttps://farm2.staticflickr.com/1722/28520081218_f7c3808bcd_b.jpg
p26
sssVid
p27
Vc240215e39a944e78ef44421d1becf75
p28
ssVmodel
p29
(dp30
Vdisplay_name
p31
VTravel
p32
sVname
p33
Vtravel-v1.0
p34
sVoutput_info
p35
(dp36
Vtype_ext
p37
Vconcept
p38
sVmessage
p39
VShow output_info with: GET /models/{model_id}/output_info
p40
sVtype
p41
Vconcept
p42
ssVcreated_at
p43
V2016-09-17T22:18:59.955626Z
p44
sVapp_id
p45
Vmain
p46
sVmodel_version
p47
(dp48
Vstatus
p49
(dp50
Vcode
p51
I21100
sVdescription
p52
VModel trained successfully
p53
ssVcreated_at
p54
V2016-09-17T22:18:59.955626Z
p55
sVid
p56
Vd2ffbf9730fd41fea79063270847be82
p57
ssVid
p58
Veee28c313d69466f836ab83287a54ed9
p59
ssVdata
p60
(dp61
Vconcepts
p62
(lp63
(dp64
Vapp_id
p65
Vmain
p66
sVid
p67
Vai_XB2b9m4v
p68
sVvalue
p69
F0.66545580000000004
sVname
p70
VSummer
p71
sa(dp72
Vapp_id
p73
Vmain
p74
sVid
p75
Vai_zF1MvGHt
p76
sVvalue
p77
F0.56280520000000001
sVname
p78
VTelevision
p79
sa(dp80
Vapp_id
p81
Vmain
p82
sVid
p83
Vai_zTxfQQKH
p84
sVvalue
p85
F0.52822329999999995
sVname
p86
VKids Area
p87
sa(dp88
Vapp_id
p89
Vmain
p90
sVid
p91
Vai_m7PCbqbx
p92
sVvalue
p93
F0.48896790000000001
sVname
p94
VGolf Course
p95
sa(dp96
Vapp_id
p97
Vmain
p98
sVid
p99
Vai_2jkxl4Fz
p100
sVvalue
p101
F0.48593825000000002
sVname
p102
VSpring
p103
sa(dp104
Vapp_id
p105
Vmain
p106
sVid
p107
Vai_zdZZcgX8
p108
sVvalue
p109
F0.37110125999999999
sVname
p110
VSurroundings
p111
sa(dp112
Vapp_id
p113
Vmain
p114
sVid
p115
Vai_MbpTFJxj
p116
sVvalue
p117
F0.35798555999999998
sVname
p118
VGarden
p119
sa(dp120
Vapp_id
p121
Vmain
p122
sVid
p123
Vai_sf6B79BS
p124
sVvalue
p125
F0.23527707
sVname
p126
VSports & Activities
p127
sa(dp128
Vapp_id
p129
Vmain
p130
sVid
p131
Vai_4jNtvp5v
p132
sVvalue
p133
F0.20647438000000001
sVname
p134
VAutumn
p135
sa(dp136
Vapp_id
p137
Vmain
p138
sVid
p139
Vai_sVFZBjj5
p140
sVvalue
p141
F0.17362480999999999
sVname
p142
VGame Room
p143
sa(dp144
Vapp_id
p145
Vmain
p146
sVid
p147
Vai_hmSzCZd5
p148
sVvalue
p149
F0.15643148000000001
sVname
p150
VDaytime
p151
sa(dp152
Vapp_id
p153
Vmain
p154
sVid
p155
Vai_3j6nNvsH
p156
sVvalue
p157
F0.13489163000000001
sVname
p158
VCasino
p159
sa(dp160
Vapp_id
p161
Vmain
p162
sVid
p163
Vai_8v2Tm2Gl
p164
sVvalue
p165
F0.12408075
sVname
p166
VHot Tub
p167
sa(dp168
Vapp_id
p169
Vmain
p170
sVid
p171
Vai_q4dFqXVs
p172
sVvalue
p173
F0.12225446
sVname
p174
VBoat
p175
sa(dp176
Vapp_id
p177
Vmain
p178
sVid
p179
Vai_2QTpTbBt
p180
sVvalue
p181
F0.11376049000000001
sVname
p182
VPeople
p183
sa(dp184
Vapp_id
p185
Vmain
p186
sVid
p187
Vai_KpHGGkfp
p188
sVvalue
p189
F0.110435665
sVname
p190
VFountain
p191
sa(dp192
Vapp_id
p193
Vmain
p194
sVid
p195
Vai_7kVDV8Md
p196
sVvalue
p197
F0.10672512000000001
sVname
p198
VBicycling
p199
sa(dp200
Vapp_id
p201
Vmain
p202
sVid
p203
Vai_1gfzSbdC
p204
sVvalue
p205
F0.097574040000000001
sVname
p206
VEntrance
p207
sa(dp208
Vapp_id
p209
Vmain
p210
sVid
p211
Vai_J2x9qKdS
p212
sVvalue
p213
F0.072972394999999995
sVname
p214
VAnimals
p215
sa(dp216
Vapp_id
p217
Vmain
p218
sVid
p219
Vai_T4GN2Cdl
p220
sVvalue
p221
F0.071973679999999998
sVname
p222
VWater Sports
p223
sassVid
p224
V39cd642a2be04a6caf510b00fe283c83
p225
sassS'general'
p226
(dp227
Vstatus
p228
(dp229
Vcode
p230
I10000
sVdescription
p231
VOk
p232
ssVoutputs
p233
(lp234
(dp235
Vstatus
p236
(dp237
Vcode
p238
I10000
sVdescription
p239
VOk
p240
ssVcreated_at
p241
V2018-07-27T03:42:17.778869827Z
p242
sVinput
p243
(dp244
Vdata
p245
(dp246
Vimage
p247
(dp248
Vurl
p249
Vhttps://farm2.staticflickr.com/1722/28520081218_f7c3808bcd_b.jpg
p250
sssVid
p251
V531967954f444a92bddf979f10d71136
p252
ssVmodel
p253
(dp254
Vdisplay_name
p255
VGeneral
p256
sVname
p257
Vgeneral-v1.3
p258
sVoutput_info
p259
(dp260
Vtype_ext
p261
Vconcept
p262
sVmessage
p263
VShow output_info with: GET /models/{model_id}/output_info
p264
sVtype
p265
Vconcept
p266
ssVcreated_at
p267
V2016-03-09T17:11:39.608845Z
p268
sVapp_id
p269
Vmain
p270
sVmodel_version
p271
(dp272
Vstatus
p273
(dp274
Vcode
p275
I21100
sVdescription
p276
VModel trained successfully
p277
ssVcreated_at
p278
V2016-07-13T01:19:12.147644Z
p279
sVid
p280
Vaa9ca48295b37401f8af92ad1af0d91d
p281
ssVid
p282
Vaaa03c23b3724a16a56b629203edc62c
p283
ssVdata
p284
(dp285
Vconcepts
p286
(lp287
(dp288
Vapp_id
p289
Vmain
p290
sVid
p291
Vai_WTrlNkqM
p292
sVvalue
p293
F0.99860479999999996
sVname
p294
Vvehicle
p295
sa(dp296
Vapp_id
p297
Vmain
p298
sVid
p299
Vai_LplXDDZ2
p300
sVvalue
p301
F0.99707080000000003
sVname
p302
Vcar
p303
sa(dp304
Vapp_id
p305
Vmain
p306
sVid
p307
Vai_hsG8bzf6
p308
sVvalue
p309
F0.98479179999999999
sVname
p310
Vdrive
p311
sa(dp312
Vapp_id
p313
Vmain
p314
sVid
p315
Vai_Xxjc3MhT
p316
sVvalue
p317
F0.98470557000000003
sVname
p318
Vtransportation system
p319
sa(dp320
Vapp_id
p321
Vmain
p322
sVid
p323
Vai_DPX3d5qs
p324
sVvalue
p325
F0.97039646000000002
sVname
p326
Vtruck
p327
sa(dp328
Vapp_id
p329
Vmain
p330
sVid
p331
Vai_786Zr311
p332
sVvalue
p333
F0.96522903000000004
sVname
p334
Vno person
p335
sa(dp336
Vapp_id
p337
Vmain
p338
sVid
p339
Vai_cFjHhsk5
p340
sVvalue
p341
F0.95908930000000003
sVname
p342
Vdrag race
p343
sa(dp344
Vapp_id
p345
Vmain
p346
sVid
p347
Vai_gRZHdRD7
p348
sVvalue
p349
F0.94669630000000005
sVname
p350
Vwheel
p351
sa(dp352
Vapp_id
p353
Vmain
p354
sVid
p355
Vai_dSCKh8xv
p356
sVvalue
p357
F0.93520194000000001
sVname
p358
Vfast
p359
sa(dp360
Vapp_id
p361
Vmain
p362
sVid
p363
Vai_K2d5Ps8r
p364
sVvalue
p365
F0.91233103999999998
sVname
p366
Vautomotive
p367
sa(dp368
Vapp_id
p369
Vmain
p370
sVid
p371
Vai_Zmhsv0Ch
p372
sVvalue
p373
F0.90547299999999997
sVname
p374
Voutdoors
p375
sa(dp376
Vapp_id
p377
Vmain
p378
sVid
p379
Vai_92z7j7Vc
p380
sVvalue
p381
F0.89039372999999999
sVname
p382
Vmachine
p383
sa(dp384
Vapp_id
p385
Vmain
p386
sVid
p387
Vai_5WW7fH4K
p388
sVvalue
p389
F0.88173115000000002
sVname
p390
Vrace
p391
sa(dp392
Vapp_id
p393
Vmain
p394
sVid
p395
Vai_TZ3C79C6
p396
sVvalue
p397
F0.87196669999999998
sVname
p398
Vroad
p399
sa(dp400
Vapp_id
p401
Vmain
p402
sVid
p403
Vai_Kq5T0N87
p404
sVvalue
p405
F0.87172276000000004
sVname
p406
Vengine
p407
sa(dp408
Vapp_id
p409
Vmain
p410
sVid
p411
Vai_xh4vNZQL
p412
sVvalue
p413
F0.83417993999999995
sVname
p414
Vpower
p415
sa(dp416
Vapp_id
p417
Vmain
p418
sVid
p419
Vai_1Q53NvNw
p420
sVvalue
p421
F0.82251129999999995
sVname
p422
Vdriver
p423
sa(dp424
Vapp_id
p425
Vmain
p426
sVid
p427
Vai_Fw0sS1Fk
p428
sVvalue
p429
F0.81630902999999999
sVname
p430
Vpublic show
p431
sa(dp432
Vapp_id
p433
Vmain
p434
sVid
p435
Vai_9c0Hmcx0
p436
sVvalue
p437
F0.80501940000000005
sVname
p438
Vexhibition
p439
sa(dp440
Vapp_id
p441
Vmain
p442
sVid
p443
Vai_FsT0Zqdb
p444
sVvalue
p445
F0.80453825000000001
sVname
p446
Vsummer
p447
sassVid
p448
V25cfcf9919784ae7915f8dcfb8801bbe
p449
sass.