ccopy_reg
_reconstructor
p1
(crequests.models
Response
p2
c__builtin__
object
p3
NtRp4
(dp5
S'cookies'
p6
g1
(crequests.cookies
RequestsCookieJar
p7
g3
NtRp8
(dp9
S'_now'
p10
I1532663080
sS'_policy'
p11
(icookielib
DefaultCookiePolicy
p12
(dp13
S'strict_rfc2965_unverifiable'
p14
I01
sS'strict_ns_domain'
p15
I0
sS'_allowed_domains'
p16
NsS'rfc2109_as_netscape'
p17
NsS'rfc2965'
p18
I00
sS'strict_domain'
p19
I00
sg10
I1532663080
sS'strict_ns_set_path'
p20
I00
sS'strict_ns_unverifiable'
p21
I00
sS'strict_ns_set_initial_dollar'
p22
I00
sS'hide_cookie2'
p23
I00
sS'_blocked_domains'
p24
(tsS'netscape'
p25
I01
sbsS'_cookies'
p26
(dp27
sbsS'_content'
p28
S'{"photos":{"page":1,"pages":14476,"perpage":250,"total":"3618982","photo":[{"id":"29753563188","owner":"98786299@N00","secret":"a8ac440558","server":"923","farm":1,"title":"Pointy ridge at Point Bonita Lighthouse","ispublic":1,"isfriend":0,"isfamily":0},{"id":"41814307070","owner":"51035555243@N01","secret":"3c4b0aa895","server":"940","farm":1,"title":"Bachelor Auction, San Francisco, 2006","ispublic":1,"isfriend":0,"isfamily":0},{"id":"28713624207","owner":"50446746@N02","secret":"731219c071","server":"939","farm":1,"title":"Fun with Paint","ispublic":1,"isfriend":0,"isfamily":0},{"id":"29710838808","owner":"50446746@N02","secret":"11d4a0f01f","server":"862","farm":1,"title":"Crossing","ispublic":1,"isfriend":0,"isfamily":0},{"id":"43534601602","owner":"50446746@N02","secret":"f2e15d11ab","server":"839","farm":1,"title":"Somebody Loan Me a Dime","ispublic":1,"isfriend":0,"isfamily":0},{"id":"43557458031","owner":"50446746@N02","secret":"b1f20150b7","server":"1784","farm":2,"title":"Summer in the City (HSS)","ispublic":1,"isfriend":0,"isfamily":0},{"id":"28660176087","owner":"51035555243@N01","secret":"25937e5228","server":"857","farm":1,"title":"And Bombs Bursting in Air","ispublic":1,"isfriend":0,"isfamily":0},{"id":"41710692760","owner":"51035555243@N01","secret":"7a6af42065","server":"1805","farm":2,"title":"I Don\'t Have to Make This Mistake","ispublic":1,"isfriend":0,"isfamily":0},{"id":"41703549880","owner":"50446746@N02","secret":"6afa033c05","server":"1806","farm":2,"title":"Lower Broadway","ispublic":1,"isfriend":0,"isfamily":0},{"id":"28543439507","owner":"51035555243@N01","secret":"aa90ebfc0f","server":"1830","farm":2,"title":"Golden Gate Skies","ispublic":1,"isfriend":0,"isfamily":0},{"id":"43345585852","owner":"51035555243@N01","secret":"d18e271a11","server":"1808","farm":2,"title":"Flowing in and Out of Changes","ispublic":1,"isfriend":0,"isfamily":0},{"id":"42482393925","owner":"98786299@N00","secret":"53508b3793","server":"1827","farm":2,"title":"Lecture at Point Bonita sunset hike","ispublic":1,"isfriend":0,"isfamily":0},{"id":"29484326728","owner":"51035555243@N01","secret":"1d9ba80f66","server":"917","farm":1,"title":"Living Proof","ispublic":1,"isfriend":0,"isfamily":0},{"id":"42588144324","owner":"50446746@N02","secret":"643f1b3651","server":"1810","farm":2,"title":"I Saw Three Ships a Sailing","ispublic":1,"isfriend":0,"isfamily":0},{"id":"41453619510","owner":"145988625@N05","secret":"2cd7318e68","server":"920","farm":1,"title":"A Face Up Mirror by the Ocean","ispublic":1,"isfriend":0,"isfamily":0},{"id":"42544786324","owner":"98786299@N00","secret":"f29145f358","server":"1786","farm":2,"title":"Let me be crystal clear","ispublic":1,"isfriend":0,"isfamily":0},{"id":"42342841685","owner":"50446746@N02","secret":"97abe96956","server":"844","farm":1,"title":"Compare & Contrast","ispublic":1,"isfriend":0,"isfamily":0},{"id":"43234337931","owner":"77318907@N08","secret":"6dcc52f8e0","server":"1808","farm":2,"title":"Between the Pilings","ispublic":1,"isfriend":0,"isfamily":0},{"id":"42501899194","owner":"55684318@N00","secret":"05c2efe985","server":"1821","farm":2,"title":"Untitled","ispublic":1,"isfriend":0,"isfamily":0},{"id":"43147190362","owner":"34368269@N04","secret":"7427ff1304","server":"1821","farm":2,"title":"Elegant Terns - Golden Gate Bridge in background","ispublic":1,"isfriend":0,"isfamily":0},{"id":"42282505735","owner":"98786299@N00","secret":"d6f91df866","server":"847","farm":1,"title":"Smell of sugar in the Chinese candy store","ispublic":1,"isfriend":0,"isfamily":0},{"id":"42446650454","owner":"98786299@N00","secret":"52ed331080","server":"846","farm":1,"title":"For a brief moment in Chinatown","ispublic":1,"isfriend":0,"isfamily":0},{"id":"42426471594","owner":"16353046@N00","secret":"6f25eb0479","server":"1803","farm":2,"title":"Canada Day","ispublic":1,"isfriend":0,"isfamily":0},{"id":"42422861604","owner":"98786299@N00","secret":"b2163e8144","server":"1782","farm":2,"title":"Chinese woman with umbrella","ispublic":1,"isfriend":0,"isfamily":0},{"id":"41272455850","owner":"95567469@N05","secret":"78c7907a09","server":"917","farm":1,"title":"Bay Bridge Light Show.","ispublic":1,"isfriend":0,"isfamily":0},{"id":"28208564287","owner":"51035555243@N01","secret":"c6c8978c01","server":"847","farm":1,"title":"Folsom Street Fair","ispublic":1,"isfriend":0,"isfamily":0},{"id":"28173051117","owner":"51035555243@N01","secret":"b7518807fc","server":"919","farm":1,"title":"Charli Blake","ispublic":1,"isfriend":0,"isfamily":0},{"id":"29148843618","owner":"50446746@N02","secret":"9807d024c0","server":"1787","farm":2,"title":"Sunrise at the Golden Gate","ispublic":1,"isfriend":0,"isfamily":0},{"id":"29126801438","owner":"51035555243@N01","secret":"561f538b52","server":"1784","farm":2,"title":"San Francisco Days, San Francisco Nights","ispublic":1,"isfriend":0,"isfamily":0},{"id":"42089387415","owner":"51035555243@N01","secret":"a7d3ddbd23","server":"1777","farm":2,"title":"Left Coast","ispublic":1,"isfriend":0,"isfamily":0},{"id":"42089382935","owner":"51035555243@N01","secret":"9eec82f02b","server":"1766","farm":2,"title":"For a Buick 8","ispublic":1,"isfriend":0,"isfamily":0},{"id":"29118386378","owner":"77318907@N08","secret":"4f6dca317e","server":"1761","farm":2,"title":"I Left My Heart in Union Square","ispublic":1,"isfriend":0,"isfamily":0},{"id":"42238107524","owner":"145988625@N05","secret":"414f20585b","server":"1772","farm":2,"title":"The Mouth of the Golden Gate in the Twilight","ispublic":1,"isfriend":0,"isfamily":0},{"id":"42221605944","owner":"145988625@N05","secret":"8a7338a209","server":"1790","farm":2,"title":"Seems Hard to Balance?","ispublic":1,"isfriend":0,"isfamily":0},{"id":"42887073122","owner":"51035555243@N01","secret":"0e9c89b432","server":"1812","farm":2,"title":"So You Say It\'s Your Birthday","ispublic":1,"isfriend":0,"isfamily":0},{"id":"41108932130","owner":"51035555243@N01","secret":"451bc7642d","server":"896","farm":1,"title":"American Photographer","ispublic":1,"isfriend":0,"isfamily":0},{"id":"41983655585","owner":"47920182@N03","secret":"e679b9645c","server":"1784","farm":2,"title":"From Russian Hill","ispublic":1,"isfriend":0,"isfamily":0},{"id":"42157548094","owner":"51035555243@N01","secret":"7d3eee3c46","server":"1781","farm":2,"title":"Cheetah","ispublic":1,"isfriend":0,"isfamily":0},{"id":"42853508401","owner":"51035555243@N01","secret":"4560e41162","server":"1761","farm":2,"title":"American Portrait","ispublic":1,"isfriend":0,"isfamily":0},{"id":"27973872657","owner":"51035555243@N01","secret":"ba8da988d2","server":"1745","farm":2,"title":"Charli Blake","ispublic":1,"isfriend":0,"isfamily":0},{"id":"42832286201","owner":"51035555243@N01","secret":"3bd1f16d25","server":"1802","farm":2,"title":"Below a Bridge","ispublic":1,"isfriend":0,"isfamily":0},{"id":"42825786741","owner":"51035555243@N01","secret":"8b96d44008","server":"1801","farm":2,"title":"New San Francisco Skyline","ispublic":1,"isfriend":0,"isfamily":0},{"id":"41007709610","owner":"130819719@N05","secret":"12b66cfa02","server":"1756","farm":2,"title":"Steller\'s Jay (Coastal)","ispublic":1,"isfriend":0,"isfamily":0},{"id":"41892242015","owner":"51035555243@N01","secret":"7865868fa0","server":"1739","farm":2,"title":"Oh Minnie You\'re So Fine","ispublic":1,"isfriend":0,"isfamily":0},{"id":"42032816354","owner":"129894947@N04","secret":"6f281696f2","server":"895","farm":1,"title":"Golden Gate trails","ispublic":1,"isfriend":0,"isfamily":0},{"id":"42019792924","owner":"64941417@N03","secret":"e4dc689e84","server":"1754","farm":2,"title":"Alcatraz","ispublic":1,"isfriend":0,"isfamily":0},{"id":"40918426690","owner":"129894947@N04","secret":"02b2534f06","server":"1752","farm":2,"title":"The way down, SFO","ispublic":1,"isfriend":0,"isfamily":0},{"id":"42678228362","owner":"161400164@N05","secret":"278c9c6d64","server":"1752","farm":2,"title":"San Francisco - CA","ispublic":1,"isfriend":0,"isfamily":0},{"id":"28833331438","owner":"64941417@N03","secret":"1b2d5702fb","server":"1725","farm":2,"title":"home of the free","ispublic":1,"isfriend":0,"isfamily":0},{"id":"27837180147","owner":"13563767@N03","secret":"802883df4f","server":"1728","farm":2,"title":"IMG_1649 \\/ view in a mercedes benz showroom","ispublic":1,"isfriend":0,"isfamily":0},{"id":"28818524048","owner":"129894947@N04","secret":"403e7ed3c5","server":"1748","farm":2,"title":"San Fran","ispublic":1,"isfriend":0,"isfamily":0},{"id":"42689624071","owner":"64941417@N03","secret":"d3e8d03751","server":"1760","farm":2,"title":"Alcatraz","ispublic":1,"isfriend":0,"isfamily":0},{"id":"42689146501","owner":"51035555243@N01","secret":"a78b62892d","server":"1736","farm":2,"title":"Sparkle","ispublic":1,"isfriend":0,"isfamily":0},{"id":"42656746061","owner":"51035555243@N01","secret":"a9026b84ac","server":"1733","farm":2,"title":"Shooting with Ivan","ispublic":1,"isfriend":0,"isfamily":0},{"id":"41899006374","owner":"51035555243@N01","secret":"df9816c043","server":"1745","farm":2,"title":"Man That I\'ve Become","ispublic":1,"isfriend":0,"isfamily":0},{"id":"28732760278","owner":"51035555243@N01","secret":"ef6c27dd38","server":"1753","farm":2,"title":"Well at a Certain Time of Night","ispublic":1,"isfriend":0,"isfamily":0},{"id":"42531577872","owner":"51035555243@N01","secret":"08a64a06d9","server":"1758","farm":2,"title":"Underneath","ispublic":1,"isfriend":0,"isfamily":0},{"id":"27701190607","owner":"51035555243@N01","secret":"7b4b0948b7","server":"1727","farm":2,"title":"Blue Angels","ispublic":1,"isfriend":0,"isfamily":0},{"id":"41600720075","owner":"30607051@N00","secret":"f6c9e0fd96","server":"1729","farm":2,"title":"meteorological summer begins","ispublic":1,"isfriend":0,"isfamily":0},{"id":"40695018550","owner":"51035555243@N01","secret":"4ec215d0f0","server":"1736","farm":2,"title":"Folsom Street Fair","ispublic":1,"isfriend":0,"isfamily":0},{"id":"41550674545","owner":"34368269@N04","secret":"ec5e0a6de7","server":"1732","farm":2,"title":"Pygmy Nuthatch","ispublic":1,"isfriend":0,"isfamily":0},{"id":"40644543730","owner":"34368269@N04","secret":"e84d16e889","server":"1754","farm":2,"title":"Pygmy Nuthatches","ispublic":1,"isfriend":0,"isfamily":0},{"id":"41728999014","owner":"51035555243@N01","secret":"5abd040d0d","server":"1729","farm":2,"title":"East is East, and West is San Francisco","ispublic":1,"isfriend":0,"isfamily":0},{"id":"42387371082","owner":"34368269@N04","secret":"7761057bdd","server":"1723","farm":2,"title":"Wood Duck","ispublic":1,"isfriend":0,"isfamily":0},{"id":"40616579120","owner":"34368269@N04","secret":"b2c7cc3902","server":"881","farm":1,"title":"Acorn Woodpecker","ispublic":1,"isfriend":0,"isfamily":0},{"id":"41673005634","owner":"51035555243@N01","secret":"55756bb8b1","server":"1749","farm":2,"title":"West Coast","ispublic":1,"isfriend":0,"isfamily":0},{"id":"40582214930","owner":"77318907@N08","secret":"70fdc035fd","server":"1737","farm":2,"title":"Bird With Bridge","ispublic":1,"isfriend":0,"isfamily":0},{"id":"27507406417","owner":"34368269@N04","secret":"39fdbcf8c9","server":"885","farm":1,"title":"Hooded Oriole (m)","ispublic":1,"isfriend":0,"isfamily":0},{"id":"41465243675","owner":"145988625@N05","secret":"4a68f23a98","server":"1744","farm":2,"title":"San Francisco Skyline in the Far Distance","ispublic":1,"isfriend":0,"isfamily":0},{"id":"40547654970","owner":"33075741@N03","secret":"c244e06628","server":"1753","farm":2,"title":"\\" Paralelo \\"","ispublic":1,"isfriend":0,"isfamily":0},{"id":"28448853048","owner":"77318907@N08","secret":"2a8d4f4476","server":"964","farm":1,"title":"On Kirby Cove","ispublic":1,"isfriend":0,"isfamily":0},{"id":"40491987110","owner":"51035555243@N01","secret":"22fa8e6110","server":"943","farm":1,"title":"There\'s Bourbon on the Breath","ispublic":1,"isfriend":0,"isfamily":0},{"id":"40469429960","owner":"51035555243@N01","secret":"5e3c9292f9","server":"982","farm":1,"title":"Soft Serve in Pink","ispublic":1,"isfriend":0,"isfamily":0},{"id":"40469425110","owner":"51035555243@N01","secret":"78817b88fe","server":"959","farm":1,"title":"San Francisco Days, San Francisco Nights","ispublic":1,"isfriend":0,"isfamily":0},{"id":"40452794120","owner":"30607051@N00","secret":"ba3486be6a","server":"956","farm":1,"title":"irish house on o\'farrell street","ispublic":1,"isfriend":0,"isfamily":0},{"id":"40437817220","owner":"16353046@N00","secret":"360c31c391","server":"968","farm":1,"title":"Mission & Fremont Street","ispublic":1,"isfriend":0,"isfamily":0},{"id":"41495288434","owner":"145988625@N05","secret":"091a58b56e","server":"961","farm":1,"title":"Sundown","ispublic":1,"isfriend":0,"isfamily":0},{"id":"28340013668","owner":"88003802@N00","secret":"c9f2f5ae84","server":"829","farm":1,"title":"Agent Orange","ispublic":1,"isfriend":0,"isfamily":0},{"id":"41468931034","owner":"51035555243@N01","secret":"a83a860ba1","server":"911","farm":1,"title":"My Morning View","ispublic":1,"isfriend":0,"isfamily":0},{"id":"42143715212","owner":"34368269@N04","secret":"bbce8496d5","server":"976","farm":1,"title":"H6) Red-masked Parakeet [Explored]","ispublic":1,"isfriend":0,"isfamily":0},{"id":"28309859408","owner":"51035555243@N01","secret":"b99ed9f00a","server":"966","farm":1,"title":"Folsom Street Fair","ispublic":1,"isfriend":0,"isfamily":0},{"id":"41248473375","owner":"127994746@N05","secret":"3e039df717","server":"974","farm":1,"title":"I\'m lost, I\'m a ghost dispossessed","ispublic":1,"isfriend":0,"isfamily":0},{"id":"41428617404","owner":"34368269@N04","secret":"deec39ab8d","server":"982","farm":1,"title":"Pygmy Nuthatch","ispublic":1,"isfriend":0,"isfamily":0},{"id":"42101077732","owner":"57744973@N00","secret":"198c34679c","server":"824","farm":1,"title":"Vintage VW","ispublic":1,"isfriend":0,"isfamily":0},{"id":"42124829281","owner":"51035555243@N01","secret":"d1228da183","server":"950","farm":1,"title":"Charli Blake","ispublic":1,"isfriend":0,"isfamily":0},{"id":"41183968155","owner":"145988625@N05","secret":"9cb1ec9ff1","server":"954","farm":1,"title":"Sailing in Mist on the Bay","ispublic":1,"isfriend":0,"isfamily":0},{"id":"42034894902","owner":"34368269@N04","secret":"7b26fa8de2","server":"829","farm":1,"title":"Northern Rough-winged Swallow","ispublic":1,"isfriend":0,"isfamily":0},{"id":"42048419351","owner":"34368269@N04","secret":"b46242cd60","server":"910","farm":1,"title":"Pigeon Guillemots (m) - Mating confrontation","ispublic":1,"isfriend":0,"isfamily":0},{"id":"41123487375","owner":"34368269@N04","secret":"4389962e5b","server":"970","farm":1,"title":"G3) Pigeon Guillemots - Mating Agression Sequence","ispublic":1,"isfriend":0,"isfamily":0},{"id":"42024271041","owner":"34368269@N04","secret":"5b42ac742d","server":"827","farm":1,"title":"Pigeon Guillemots - Mating Agression #3","ispublic":1,"isfriend":0,"isfamily":0},{"id":"41254833364","owner":"77318907@N08","secret":"01c195c81a","server":"970","farm":1,"title":"Fort Point View","ispublic":1,"isfriend":0,"isfamily":0},{"id":"40153367200","owner":"39027998@N02","secret":"9f17ab9a92","server":"910","farm":1,"title":"When it rains look for rainbows, when it\'s dark look for stars\\u2026","ispublic":1,"isfriend":0,"isfamily":0},{"id":"41913914072","owner":"34368269@N04","secret":"6899fb1113","server":"978","farm":1,"title":"Hooded Oriole (m)","ispublic":1,"isfriend":0,"isfamily":0},{"id":"41893482032","owner":"77318907@N08","secret":"c4637bc738","server":"948","farm":1,"title":"Francisco\'s Flatiron","ispublic":1,"isfriend":0,"isfamily":0},{"id":"41209431534","owner":"51035555243@N01","secret":"06a72f3393","server":"953","farm":1,"title":"Dark Bridge","ispublic":1,"isfriend":0,"isfamily":0},{"id":"41878204162","owner":"153031613@N06","secret":"7afd566024","server":"970","farm":1,"title":"San Francisco","ispublic":1,"isfriend":0,"isfamily":0},{"id":"41869743982","owner":"98786299@N00","secret":"e75ff38300","server":"911","farm":1,"title":"There is no dark side of the moon, really","ispublic":1,"isfriend":0,"isfamily":0},{"id":"27043457917","owner":"145988625@N05","secret":"548b2152e4","server":"965","farm":1,"title":"Low Clouds Covered the Entrance of SF Bay","ispublic":1,"isfriend":0,"isfamily":0},{"id":"41191754674","owner":"7679729@N07","secret":"fe02a92407","server":"872","farm":1,"title":"Heliconia","ispublic":1,"isfriend":0,"isfamily":0},{"id":"28030572588","owner":"20475254@N05","secret":"cc27348eb2","server":"974","farm":1,"title":"Stow Lake","ispublic":1,"isfriend":0,"isfamily":0},{"id":"41855865922","owner":"82339538@N00","secret":"62ee2b2a95","server":"944","farm":1,"title":"Emirates United for Wildlife in San Francisco (SFO)","ispublic":1,"isfriend":0,"isfamily":0},{"id":"40076210140","owner":"51035555243@N01","secret":"f4126c9896","server":"965","farm":1,"title":"Naked Church","ispublic":1,"isfriend":0,"isfamily":0},{"id":"41823502062","owner":"55514420@N00","secret":"de26d733ed","server":"955","farm":1,"title":"San Francisco Sunrise","ispublic":1,"isfriend":0,"isfamily":0},{"id":"41141528534","owner":"51035555243@N01","secret":"bd4c9b1c62","server":"960","farm":1,"title":"Please Come Home","ispublic":1,"isfriend":0,"isfamily":0},{"id":"41141527894","owner":"51035555243@N01","secret":"941161a806","server":"824","farm":1,"title":"You Tell Me Sleeping Only Makes You Tired","ispublic":1,"isfriend":0,"isfamily":0},{"id":"40039864910","owner":"51035555243@N01","secret":"eea21749a0","server":"828","farm":1,"title":"Walking on the Moon","ispublic":1,"isfriend":0,"isfamily":0},{"id":"27955004718","owner":"51035555243@N01","secret":"ee232152e5","server":"867","farm":1,"title":"And the Island Signs Say That We Are Close","ispublic":1,"isfriend":0,"isfamily":0},{"id":"41756730122","owner":"44161305@N02","secret":"db00763e24","server":"959","farm":1,"title":"San Francisco, California, US August 2017 158","ispublic":1,"isfriend":0,"isfamily":0},{"id":"40897153915","owner":"98786299@N00","secret":"3f6cc83c99","server":"868","farm":1,"title":"The great gig in the sky","ispublic":1,"isfriend":0,"isfamily":0},{"id":"39985517870","owner":"95883232@N07","secret":"3149516fda","server":"980","farm":1,"title":"Color-F-ul","ispublic":1,"isfriend":0,"isfamily":0},{"id":"41072421604","owner":"7156765@N05","secret":"34e16f6350","server":"973","farm":1,"title":"San Francisco  - California  - Coit Tower - Recreation Park","ispublic":1,"isfriend":0,"isfamily":0},{"id":"41072420884","owner":"7156765@N05","secret":"5da629ccbe","server":"866","farm":1,"title":"San Francisco  - California  - Coit Tower - Murals Inside","ispublic":1,"isfriend":0,"isfamily":0},{"id":"27897097428","owner":"51035555243@N01","secret":"d9bb53eb7c","server":"980","farm":1,"title":"I\'ve Been Burned Before and I Know the Score","ispublic":1,"isfriend":0,"isfamily":0},{"id":"26897872807","owner":"51035555243@N01","secret":"6469e79f9b","server":"974","farm":1,"title":"Charli Blake","ispublic":1,"isfriend":0,"isfamily":0},{"id":"26897535097","owner":"95567469@N05","secret":"ac371ca637","server":"958","farm":1,"title":"Portrait","ispublic":1,"isfriend":0,"isfamily":0},{"id":"40857745545","owner":"34368269@N04","secret":"2b2cdb0e34","server":"872","farm":1,"title":"Bliss","ispublic":1,"isfriend":0,"isfamily":0},{"id":"26884105317","owner":"129894947@N04","secret":"32f80cf292","server":"904","farm":1,"title":"Story tellers....","ispublic":1,"isfriend":0,"isfamily":0},{"id":"26864389327","owner":"98786299@N00","secret":"22e0cb221e","server":"950","farm":1,"title":"Nails, waxing and more","ispublic":1,"isfriend":0,"isfamily":0},{"id":"41712868011","owner":"51035555243@N01","secret":"80f97275df","server":"949","farm":1,"title":"Pier 24","ispublic":1,"isfriend":0,"isfamily":0},{"id":"41656937922","owner":"44161305@N02","secret":"b1345c3a11","server":"945","farm":1,"title":"San Francisco, California, US August 2017 162","ispublic":1,"isfriend":0,"isfamily":0},{"id":"26824169937","owner":"51035555243@N01","secret":"c48c1bb59c","server":"906","farm":1,"title":"Best for Last","ispublic":1,"isfriend":0,"isfamily":0},{"id":"41636117722","owner":"44161305@N02","secret":"5378e600e3","server":"977","farm":1,"title":"Japanese Tea Garden, San Francisco, California, , US August 2017 213","ispublic":1,"isfriend":0,"isfamily":0},{"id":"27806905818","owner":"74486811@N00","secret":"1795fd7aa0","server":"951","farm":1,"title":"mesmerized","ispublic":1,"isfriend":0,"isfamily":0},{"id":"40960882274","owner":"44161305@N02","secret":"275536d8b0","server":"948","farm":1,"title":"The Painted Ladies, San Francisco, California, , US August 2017 249","ispublic":1,"isfriend":0,"isfamily":0},{"id":"39855124740","owner":"34368269@N04","secret":"93ccb43316","server":"902","farm":1,"title":"Tree Swallows","ispublic":1,"isfriend":0,"isfamily":0},{"id":"40752880225","owner":"51035555243@N01","secret":"3f63bd84e4","server":"830","farm":1,"title":"11 Miles Away","ispublic":1,"isfriend":0,"isfamily":0},{"id":"26761225327","owner":"44161305@N02","secret":"d494063feb","server":"829","farm":1,"title":"San Francisco, California, US August 2017 255","ispublic":1,"isfriend":0,"isfamily":0},{"id":"40736994905","owner":"51035555243@N01","secret":"d1104a421e","server":"927","farm":1,"title":"Ivan Makarov, 2018","ispublic":1,"isfriend":0,"isfamily":0},{"id":"41588488722","owner":"7679729@N07","secret":"17484ea3f1","server":"882","farm":1,"title":"Humpback whale fluke","ispublic":1,"isfriend":0,"isfamily":0},{"id":"26745183257","owner":"51035555243@N01","secret":"07f8fc3512","server":"933","farm":1,"title":"That Bridge","ispublic":1,"isfriend":0,"isfamily":0},{"id":"41568788782","owner":"44161305@N02","secret":"0422b01203","server":"921","farm":1,"title":"San Francisco, California, US August 2017 369","ispublic":1,"isfriend":0,"isfamily":0},{"id":"40890423114","owner":"51035555243@N01","secret":"07f8669ca8","server":"881","farm":1,"title":"Neon Speaks","ispublic":1,"isfriend":0,"isfamily":0},{"id":"39793148930","owner":"66926252@N07","secret":"8f8a79c33a","server":"808","farm":1,"title":"Forest and Cities","ispublic":1,"isfriend":0,"isfamily":0},{"id":"40887065074","owner":"44161305@N02","secret":"b6ffc948fb","server":"797","farm":1,"title":"San Francisco, California, US August 2017 160","ispublic":1,"isfriend":0,"isfamily":0},{"id":"41582975291","owner":"56397153@N04","secret":"d4d1708978","server":"874","farm":1,"title":"Slow Dance","ispublic":1,"isfriend":0,"isfamily":0},{"id":"39773441700","owner":"61943224@N04","secret":"b256e5a180","server":"792","farm":1,"title":"San Francisco - Rotunda in the Park of the Fine Arts","ispublic":1,"isfriend":0,"isfamily":0},{"id":"41578164781","owner":"51035555243@N01","secret":"bcca6a3cac","server":"857","farm":1,"title":"Charli Blake","ispublic":1,"isfriend":0,"isfamily":0},{"id":"41577763301","owner":"44161305@N02","secret":"4cde47a7c9","server":"815","farm":1,"title":"San Francisco, California, US August 2017 173","ispublic":1,"isfriend":0,"isfamily":0},{"id":"40668492825","owner":"56397153@N04","secret":"f8f5ff23bb","server":"803","farm":1,"title":"Wraparound","ispublic":1,"isfriend":0,"isfamily":0},{"id":"27654591418","owner":"39027998@N02","secret":"5bc314aec7","server":"880","farm":1,"title":"The soul becomes dyed with the color of its thoughts\\u2026","ispublic":1,"isfriend":0,"isfamily":0},{"id":"39710812800","owner":"56397153@N04","secret":"5a8b6b7499","server":"886","farm":1,"title":"Blue Weave","ispublic":1,"isfriend":0,"isfamily":0},{"id":"27646835898","owner":"51035555243@N01","secret":"ec9f0dba2b","server":"910","farm":1,"title":"I Remember the Sound of Your November Downtown","ispublic":1,"isfriend":0,"isfamily":0},{"id":"41468470362","owner":"51035555243@N01","secret":"691dbe5fbf","server":"820","farm":1,"title":"Dirty Secrets in a Dirty Little Town","ispublic":1,"isfriend":0,"isfamily":0},{"id":"40606416295","owner":"56397153@N04","secret":"1bd3e03df9","server":"891","farm":1,"title":"Patina","ispublic":1,"isfriend":0,"isfamily":0},{"id":"27612207768","owner":"51035555243@N01","secret":"d768ba7189","server":"791","farm":1,"title":"Charli Blake","ispublic":1,"isfriend":0,"isfamily":0},{"id":"41447291901","owner":"129894947@N04","secret":"b813e3897f","server":"883","farm":1,"title":"Golden peak, San Francisco","ispublic":1,"isfriend":0,"isfamily":0},{"id":"41401171822","owner":"56397153@N04","secret":"77caf3035c","server":"813","farm":1,"title":"Athlete and Scholar","ispublic":1,"isfriend":0,"isfamily":0},{"id":"41388109812","owner":"34368269@N04","secret":"3b4ac7edb4","server":"868","farm":1,"title":"Pipevine Swallowtail (m)","ispublic":1,"isfriend":0,"isfamily":0},{"id":"27533040468","owner":"129894947@N04","secret":"dd78bd7ec1","server":"813","farm":1,"title":"San Francisco panorama","ispublic":1,"isfriend":0,"isfamily":0},{"id":"40673823304","owner":"56397153@N04","secret":"870ab49f4c","server":"884","farm":1,"title":"Tower of Babel","ispublic":1,"isfriend":0,"isfamily":0},{"id":"40482839125","owner":"51035555243@N01","secret":"d71707795a","server":"794","farm":1,"title":"Sex Appeal","ispublic":1,"isfriend":0,"isfamily":0},{"id":"27492377108","owner":"51035555243@N01","secret":"4c787d94d0","server":"788","farm":1,"title":"Turning of the Tide","ispublic":1,"isfriend":0,"isfamily":0},{"id":"41307296111","owner":"22119513@N00","secret":"ae94bc13c9","server":"891","farm":1,"title":"Dragon\'s Gate","ispublic":1,"isfriend":0,"isfamily":0},{"id":"27430441258","owner":"30607051@N00","secret":"ced6d9e4c4","server":"893","farm":1,"title":"at the corner or rain and more rain","ispublic":1,"isfriend":0,"isfamily":0},{"id":"40579963664","owner":"51035555243@N01","secret":"667583463b","server":"818","farm":1,"title":"Every Now and Then the Stars Align","ispublic":1,"isfriend":0,"isfamily":0},{"id":"41250354421","owner":"51035555243@N01","secret":"41092d48e6","server":"867","farm":1,"title":"Three Gems","ispublic":1,"isfriend":0,"isfamily":0},{"id":"27363959678","owner":"39027998@N02","secret":"2c8baf1e91","server":"886","farm":1,"title":"Heaven grant us patience with a man in love\\u2026","ispublic":1,"isfriend":0,"isfamily":0},{"id":"39402077580","owner":"56397153@N04","secret":"032aca6c02","server":"884","farm":1,"title":"Pier","ispublic":1,"isfriend":0,"isfamily":0},{"id":"41161688042","owner":"51035555243@N01","secret":"7ce16d74ff","server":"887","farm":1,"title":"Folsom Street Fair","ispublic":1,"isfriend":0,"isfamily":0},{"id":"27322013318","owner":"51035555243@N01","secret":"2ecd1f6f69","server":"890","farm":1,"title":"Tears Are in Your Eyes","ispublic":1,"isfriend":0,"isfamily":0},{"id":"40444761664","owner":"51035555243@N01","secret":"373bdb11de","server":"865","farm":1,"title":"Well at a Certain Time of Night","ispublic":1,"isfriend":0,"isfamily":0},{"id":"41111908481","owner":"51035555243@N01","secret":"b8db176c87","server":"893","farm":1,"title":"Her Grace and Beauty","ispublic":1,"isfriend":0,"isfamily":0},{"id":"41059445802","owner":"51035555243@N01","secret":"b35c589edc","server":"900","farm":1,"title":"Hey Brother","ispublic":1,"isfriend":0,"isfamily":0},{"id":"41059435262","owner":"51035555243@N01","secret":"12ed4d37e1","server":"889","farm":1,"title":"Every Now and Then the Stars Align","ispublic":1,"isfriend":0,"isfamily":0},{"id":"41057291802","owner":"56397153@N04","secret":"1c76b12b1a","server":"875","farm":1,"title":"Transfiguration","ispublic":1,"isfriend":0,"isfamily":0},{"id":"27221816058","owner":"34368269@N04","secret":"dc1d3a8d4c","server":"820","farm":1,"title":"Western Grebe","ispublic":1,"isfriend":0,"isfamily":0},{"id":"41065724751","owner":"16353046@N00","secret":"b6acec6e53","server":"793","farm":1,"title":"San Francisco Skyline","ispublic":1,"isfriend":0,"isfamily":0},{"id":"39240761840","owner":"129894947@N04","secret":"4ed2057677","server":"799","farm":1,"title":"Market St, SFO","ispublic":1,"isfriend":0,"isfamily":0},{"id":"40979582701","owner":"36312349@N00","secret":"6b66f1c1fa","server":"4782","farm":5,"title":"we\'re all broken pieces floating by","ispublic":1,"isfriend":0,"isfamily":0},{"id":"39129518880","owner":"129894947@N04","secret":"ba674567c7","server":"803","farm":1,"title":"Sunwalker, San Francisco","ispublic":1,"isfriend":0,"isfamily":0},{"id":"40216241544","owner":"155605874@N06","secret":"968eae827c","server":"789","farm":1,"title":"Que piensas?","ispublic":1,"isfriend":0,"isfamily":0},{"id":"40846814872","owner":"51035555243@N01","secret":"8ba964b08c","server":"784","farm":1,"title":"Charli Blake","ispublic":1,"isfriend":0,"isfamily":0},{"id":"40827454972","owner":"51035555243@N01","secret":"1ce08aa755","server":"808","farm":1,"title":"75th Birthday Golden Gate Bridge","ispublic":1,"isfriend":0,"isfamily":0},{"id":"40860777071","owner":"110307689@N03","secret":"f8f13a5df7","server":"808","farm":1,"title":"Sea Lions Pier 39","ispublic":1,"isfriend":0,"isfamily":0},{"id":"39038271870","owner":"51035555243@N01","secret":"a90bedb380","server":"4777","farm":5,"title":"Folsom Street Fair","ispublic":1,"isfriend":0,"isfamily":0},{"id":"39023284230","owner":"50446746@N02","secret":"e5d3142606","server":"816","farm":1,"title":"Brick, Wood, & Glass","ispublic":1,"isfriend":0,"isfamily":0},{"id":"38999178810","owner":"50446746@N02","secret":"6989563b7d","server":"4776","farm":5,"title":"Gentrification","ispublic":1,"isfriend":0,"isfamily":0},{"id":"38998782430","owner":"145988625@N05","secret":"8b2d7685c5","server":"4774","farm":5,"title":"Storm is on the way ...","ispublic":1,"isfriend":0,"isfamily":0},{"id":"38994151870","owner":"62089664@N07","secret":"55b5329cba","server":"4776","farm":5,"title":"Golden Blacken Whiten","ispublic":1,"isfriend":0,"isfamily":0},{"id":"40745235441","owner":"51035555243@N01","secret":"ebf3aae525","server":"4796","farm":5,"title":"Every Time We Get Together","ispublic":1,"isfriend":0,"isfamily":0},{"id":"40741342791","owner":"62444557@N00","secret":"d47b5757ec","server":"4781","farm":5,"title":"Golden Gate | 2018 [Explored]","ispublic":1,"isfriend":0,"isfamily":0},{"id":"40677434652","owner":"145988625@N05","secret":"dc7f9f8fdc","server":"4782","farm":5,"title":"Silvery Morning by SF Bay","ispublic":1,"isfriend":0,"isfamily":0},{"id":"25835064937","owner":"51035555243@N01","secret":"5a1f083533","server":"4774","farm":5,"title":"Believe in People","ispublic":1,"isfriend":0,"isfamily":0},{"id":"25712527077","owner":"51035555243@N01","secret":"4d8fc8aaae","server":"4664","farm":5,"title":"Nice to Be Out","ispublic":1,"isfriend":0,"isfamily":0},{"id":"40523337732","owner":"51035555243@N01","secret":"d6a2610e5a","server":"4616","farm":5,"title":"Too Much","ispublic":1,"isfriend":0,"isfamily":0},{"id":"26657741648","owner":"51035555243@N01","secret":"286b21e142","server":"4612","farm":5,"title":"Do You Know My World?","ispublic":1,"isfriend":0,"isfamily":0},{"id":"40496000181","owner":"51035555243@N01","secret":"f0a1da087c","server":"4748","farm":5,"title":"The Colors of San Francisco","ispublic":1,"isfriend":0,"isfamily":0},{"id":"39776805004","owner":"133538915@N06","secret":"919d5f7746","server":"4719","farm":5,"title":"Illuminated San Francisco","ispublic":1,"isfriend":0,"isfamily":0},{"id":"25605061967","owner":"51035555243@N01","secret":"efa2b8571d","server":"4694","farm":5,"title":"I Remember the Sound of Your November Downtown","ispublic":1,"isfriend":0,"isfamily":0},{"id":"40424021232","owner":"51035555243@N01","secret":"ecf0822dcf","server":"4703","farm":5,"title":"Save the Whales","ispublic":1,"isfriend":0,"isfamily":0},{"id":"39561974045","owner":"34368269@N04","secret":"f96f0c9825","server":"4674","farm":5,"title":"Common Yellowthroat","ispublic":1,"isfriend":0,"isfamily":0},{"id":"39718709074","owner":"157378646@N05","secret":"d337424295","server":"4694","farm":5,"title":"Almost Empty Docks","ispublic":1,"isfriend":0,"isfamily":0},{"id":"25557602297","owner":"34368269@N04","secret":"2a1859e560","server":"4670","farm":5,"title":"American Avocets (f)","ispublic":1,"isfriend":0,"isfamily":0},{"id":"26541605938","owner":"51035555243@N01","secret":"c273d891a3","server":"4630","farm":5,"title":"I\'ve Been Burned Before and I Know the Score","ispublic":1,"isfriend":0,"isfamily":0},{"id":"40362707502","owner":"34368269@N04","secret":"388e729482","server":"4660","farm":5,"title":"California Towhee","ispublic":1,"isfriend":0,"isfamily":0},{"id":"26498348508","owner":"157378646@N05","secret":"7fcf4ec5f3","server":"4626","farm":5,"title":"Hot Tomatoes","ispublic":1,"isfriend":0,"isfamily":0},{"id":"40326097841","owner":"157378646@N05","secret":"14d678a462","server":"4617","farm":5,"title":"Now Boarding","ispublic":1,"isfriend":0,"isfamily":0},{"id":"25444727167","owner":"51035555243@N01","secret":"7edeb0cc4f","server":"4677","farm":5,"title":"Sly Vegas","ispublic":1,"isfriend":0,"isfamily":0},{"id":"43203533601","owner":"81432094@N03","secret":"134d856f5b","server":"1785","farm":2,"title":"Parrots of Telegraph Hill","ispublic":1,"isfriend":0,"isfamily":0},{"id":"43154011722","owner":"81432094@N03","secret":"09918693e5","server":"918","farm":1,"title":"Cable Car, a San Francisco Treat","ispublic":1,"isfriend":0,"isfamily":0},{"id":"42303433344","owner":"30607051@N00","secret":"26e2da3b71","server":"1794","farm":2,"title":"turk street transit","ispublic":1,"isfriend":0,"isfamily":0},{"id":"42569698412","owner":"127994746@N05","secret":"929cdd79bc","server":"1747","farm":2,"title":"Moment intervention","ispublic":1,"isfriend":0,"isfamily":0},{"id":"41716758105","owner":"77318907@N08","secret":"1ea97985c3","server":"1749","farm":2,"title":"Ride and Relax","ispublic":1,"isfriend":0,"isfamily":0},{"id":"41511769945","owner":"34368269@N04","secret":"a4144a9338","server":"1734","farm":2,"title":"Acorn Woodpecker","ispublic":1,"isfriend":0,"isfamily":0},{"id":"42327392551","owner":"34368269@N04","secret":"1c7ab52e5f","server":"957","farm":1,"title":"Pigeon Guillemot","ispublic":1,"isfriend":0,"isfamily":0},{"id":"27399301897","owner":"145988625@N05","secret":"d19c6532c1","server":"894","farm":1,"title":"Golden Sunset over the Golden Gate","ispublic":1,"isfriend":0,"isfamily":0},{"id":"42247510981","owner":"34368269@N04","secret":"98d4b0dbaa","server":"959","farm":1,"title":"Pygmy Nuthatch gathering nesting materials","ispublic":1,"isfriend":0,"isfamily":0},{"id":"41488968054","owner":"34368269@N04","secret":"a6d0aaa0fd","server":"951","farm":1,"title":"E3) Allen\'s Hummingbird","ispublic":1,"isfriend":0,"isfamily":0},{"id":"40319447470","owner":"77318907@N08","secret":"0c57092c02","server":"973","farm":1,"title":"Foreboding Windmill","ispublic":1,"isfriend":0,"isfamily":0},{"id":"41349044094","owner":"34368269@N04","secret":"f75788b66c","server":"972","farm":1,"title":"Downy Woodpecker (m)","ispublic":1,"isfriend":0,"isfamily":0},{"id":"40996917735","owner":"34368269@N04","secret":"1c16c055de","server":"977","farm":1,"title":"Wilson\'s Warbler","ispublic":1,"isfriend":0,"isfamily":0},{"id":"27024620757","owner":"34368269@N04","secret":"d7d6a8b34a","server":"980","farm":1,"title":"Western Tanager (m)","ispublic":1,"isfriend":0,"isfamily":0},{"id":"41061503284","owner":"30282413@N00","secret":"7d1a07d278","server":"950","farm":1,"title":"Streets of San Francsico","ispublic":1,"isfriend":0,"isfamily":0},{"id":"41046356824","owner":"34368269@N04","secret":"4b604c82b9","server":"866","farm":1,"title":"Praising Nature - Allen\'s Hummingbird","ispublic":1,"isfriend":0,"isfamily":0},{"id":"41756755991","owner":"127994746@N05","secret":"bf5cbe4753","server":"952","farm":1,"title":"Something in the air","ispublic":1,"isfriend":0,"isfamily":0},{"id":"40779329165","owner":"44161305@N02","secret":"6cc85ae46c","server":"899","farm":1,"title":"San Francisco, California,  US August 2017 345","ispublic":1,"isfriend":0,"isfamily":0},{"id":"26778277947","owner":"34368269@N04","secret":"cacc91a4f4","server":"934","farm":1,"title":"Variable Checkerspot","ispublic":1,"isfriend":0,"isfamily":0},{"id":"26764921247","owner":"34368269@N04","secret":"310d287a98","server":"799","farm":1,"title":"Yellow-rumped Warbler (Audubon\'s)","ispublic":1,"isfriend":0,"isfamily":0},{"id":"39823790680","owner":"44161305@N02","secret":"f2f89535e7","server":"897","farm":1,"title":"Russian Hill, Lombard Street, San Francisco, California, US August 2017 278","ispublic":1,"isfriend":0,"isfamily":0},{"id":"26734735747","owner":"44161305@N02","secret":"80d1168494","server":"859","farm":1,"title":"San Francisco, California, August 2017 293","ispublic":1,"isfriend":0,"isfamily":0},{"id":"39792635270","owner":"34368269@N04","secret":"962723c454","server":"903","farm":1,"title":"Pipevine Swallowtails","ispublic":1,"isfriend":0,"isfamily":0},{"id":"40696742465","owner":"34368269@N04","secret":"d8511e2cdc","server":"939","farm":1,"title":"Golden-crowned Sparrow","ispublic":1,"isfriend":0,"isfamily":0},{"id":"40857337764","owner":"34368269@N04","secret":"b3d9fd1e13","server":"909","farm":1,"title":"Black-throated Green Warbler","ispublic":1,"isfriend":0,"isfamily":0},{"id":"41562741601","owner":"34457823@N04","secret":"dfd8c679e7","server":"849","farm":1,"title":"Golden Gate Bridge","ispublic":1,"isfriend":0,"isfamily":0},{"id":"41504716892","owner":"34457823@N04","secret":"ee5b40361b","server":"791","farm":1,"title":"Exploration","ispublic":1,"isfriend":0,"isfamily":0},{"id":"40811831594","owner":"34368269@N04","secret":"e2f056ea77","server":"942","farm":1,"title":"N9) Black-throated Green Warbler - \\"Lifer\\"","ispublic":1,"isfriend":0,"isfamily":0},{"id":"27647833918","owner":"34368269@N04","secret":"57109224c3","server":"840","farm":1,"title":"Townsend\'s Warbler","ispublic":1,"isfriend":0,"isfamily":0},{"id":"39644621420","owner":"34368269@N04","secret":"dafb17cf56","server":"895","farm":1,"title":"Townsend\'s Warbler","ispublic":1,"isfriend":0,"isfamily":0},{"id":"39609006900","owner":"34368269@N04","secret":"02cc82dfd0","server":"866","farm":1,"title":"G1) Blue-gray Gnatcatcher","ispublic":1,"isfriend":0,"isfamily":0},{"id":"40378830585","owner":"34368269@N04","secret":"4c027610b4","server":"800","farm":1,"title":"Lesser Goldfinch","ispublic":1,"isfriend":0,"isfamily":0},{"id":"27377133598","owner":"56397153@N04","secret":"c38e1d001c","server":"882","farm":1,"title":"Jacob\'s Ladder","ispublic":1,"isfriend":0,"isfamily":0},{"id":"27366533508","owner":"34368269@N04","secret":"507941760b","server":"814","farm":1,"title":"Tree Swallow","ispublic":1,"isfriend":0,"isfamily":0},{"id":"40452171284","owner":"34368269@N04","secret":"2cb3fa925f","server":"819","farm":1,"title":"Barn Swallow","ispublic":1,"isfriend":0,"isfamily":0},{"id":"41055934392","owner":"129894947@N04","secret":"cde7db5daf","server":"819","farm":1,"title":"Back to the roots, SFO","ispublic":1,"isfriend":0,"isfamily":0},{"id":"40199177395","owner":"78157566@N05","secret":"af606cfbe6","server":"874","farm":1,"title":"Sutro Baths","ispublic":1,"isfriend":0,"isfamily":0},{"id":"26122055367","owner":"34368269@N04","secret":"6f339071d4","server":"804","farm":1,"title":"Anna\'s Hummingbird","ispublic":1,"isfriend":0,"isfamily":0},{"id":"27115994838","owner":"34368269@N04","secret":"4ef56000c4","server":"785","farm":1,"title":"Chestnut-backed Chickadee","ispublic":1,"isfriend":0,"isfamily":0},{"id":"27105036528","owner":"34368269@N04","secret":"43fba0982d","server":"804","farm":1,"title":"A2) Great-tailed Grackle","ispublic":1,"isfriend":0,"isfamily":0},{"id":"39893261205","owner":"34368269@N04","secret":"f41863866b","server":"4782","farm":5,"title":"Varied Thrush (f)","ispublic":1,"isfriend":0,"isfamily":0},{"id":"40056030804","owner":"77318907@N08","secret":"71852bf91e","server":"4788","farm":5,"title":"Stow Lake Stone Bridge","ispublic":1,"isfriend":0,"isfamily":0},{"id":"38719291900","owner":"34368269@N04","secret":"edb3a9b4e0","server":"4697","farm":5,"title":"Muscovy Duck","ispublic":1,"isfriend":0,"isfamily":0},{"id":"39806557744","owner":"34368269@N04","secret":"a7a1d9f6e3","server":"4666","farm":5,"title":"Hooded Merganser (m)","ispublic":1,"isfriend":0,"isfamily":0},{"id":"26640055858","owner":"93824252@N02","secret":"382192e6f1","server":"4746","farm":5,"title":"Montgomery Station","ispublic":1,"isfriend":0,"isfamily":0},{"id":"26620902748","owner":"42152648@N06","secret":"2d203d9865","server":"4755","farm":5,"title":"Sequoia Coast Redwoods. Muir Woods National Monument. San Francisco (California)","ispublic":1,"isfriend":0,"isfamily":0},{"id":"38667623110","owner":"34368269@N04","secret":"4b5f5a6b0c","server":"4760","farm":5,"title":"Northern Shoveler","ispublic":1,"isfriend":0,"isfamily":0},{"id":"39570651665","owner":"34368269@N04","secret":"583a104be6","server":"4659","farm":5,"title":"D9) Great Blue Heron -  \\"Attitude\\"","ispublic":1,"isfriend":0,"isfamily":0},{"id":"39524624925","owner":"34368269@N04","secret":"4d224d5706","server":"4699","farm":5,"title":"White-throated Sparrow","ispublic":1,"isfriend":0,"isfamily":0},{"id":"39692394584","owner":"34368269@N04","secret":"f6283f5dd6","server":"4707","farm":5,"title":"Ruby-crowned Kinglet","ispublic":1,"isfriend":0,"isfamily":0},{"id":"25423254297","owner":"34368269@N04","secret":"ab80d6b54e","server":"4620","farm":5,"title":"Bushtit (m)","ispublic":1,"isfriend":0,"isfamily":0},{"id":"39394627025","owner":"93824252@N02","secret":"bb6e630835","server":"4698","farm":5,"title":"Point Lobos","ispublic":1,"isfriend":0,"isfamily":0}]},"stat":"ok"}'
p29
sS'encoding'
p30
NsS'url'
p31
Vhttps://api.flickr.com/services/rest/?sort=relevance&has_geo=true&nojsoncallback=1&format=json&tags=san+francisco%2C+california&method=flickr.photos.search&content_type=1&per_page=500&api_key=92cd8d03af0235c7f0301a87dabedb55&page=1&accuracy=10
p32
sS'status_code'
p33
I200
sS'request'
p34
g1
(crequests.models
PreparedRequest
p35
g3
NtRp36
(dp37
S'body'
p38
Nsg31
S'https://api.flickr.com/services/rest/?sort=relevance&has_geo=true&nojsoncallback=1&format=json&tags=san+francisco%2C+california&method=flickr.photos.search&content_type=1&per_page=500&api_key=92cd8d03af0235c7f0301a87dabedb55&page=1&accuracy=10'
p39
sS'hooks'
p40
(dp41
S'response'
p42
(lp43
ssS'headers'
p44
g1
(crequests.structures
CaseInsensitiveDict
p45
g3
NtRp46
(dp47
S'_store'
p48
curllib3.packages.ordered_dict
OrderedDict
p49
((lp50
(lp51
S'connection'
p52
a(S'Connection'
p53
S'keep-alive'
p54
tp55
aa(lp56
S'accept-encoding'
p57
a(S'Accept-Encoding'
p58
S'gzip, deflate'
tp59
aa(lp60
S'accept'
p61
a(S'Accept'
p62
S'*/*'
p63
tp64
aa(lp65
S'user-agent'
p66
a(S'User-Agent'
p67
S'python-requests/2.18.4'
tp68
aatRp69
sbsS'_body_position'
p70
Nsg26
g1
(g7
g3
NtRp71
(dp72
g10
I1532663079
sg11
(icookielib
DefaultCookiePolicy
p73
(dp74
g14
I01
sg15
I0
sg16
Nsg17
Nsg18
I00
sg19
I00
sg10
I1532663079
sg20
I00
sg21
I00
sg22
I00
sg23
I00
sg24
(tsg25
I01
sbsg26
(dp75
sbsS'method'
p76
S'GET'
p77
sbsS'elapsed'
p78
cdatetime
timedelta
p79
(I0
I0
I799524
tRp80
sg44
g1
(g45
g3
NtRp81
(dp82
g48
g49
((lp83
(lp84
S'date'
p85
a(S'Date'
p86
S'Fri, 27 Jul 2018 03:44:40 GMT'
p87
tp88
aa(lp89
S'content-type'
p90
a(S'Content-Type'
p91
S'application/json'
p92
tp93
aa(lp94
S'content-length'
p95
a(S'Content-Length'
p96
S'9026'
p97
tp98
aa(lp99
S'p3p'
p100
a(S'P3P'
p101
S'policyref="https://policies.yahoo.com/w3c/p3p.xml", CP="CAO DSP COR CUR ADM DEV TAI PSA PSD IVAi IVDi CONi TELo OTPi OUR DELi SAMi OTRi UNRi PUBi IND PHY ONL UNI PUR FIN COM NAV INT DEM CNT STA POL HEA PRE LOC GOV"'
p102
tp103
aa(lp104
S'x-content-type-options'
p105
a(S'X-Content-Type-Options'
p106
S'nosniff'
p107
tp108
aa(lp109
S'cache-control'
p110
a(S'Cache-Control'
p111
S'private'
p112
tp113
aa(lp114
S'x-served-by'
p115
a(S'X-Served-By'
p116
S'www-bm017.flickr.bf1.yahoo.com'
p117
tp118
aa(lp119
S'x-frame-options'
p120
a(S'X-Frame-Options'
p121
S'SAMEORIGIN'
p122
tp123
aa(lp124
S'vary'
p125
a(S'Vary'
p126
S'Accept-Encoding'
p127
tp128
aa(lp129
S'content-encoding'
p130
a(S'Content-Encoding'
p131
S'gzip'
p132
tp133
aa(lp134
S'age'
p135
a(S'Age'
p136
S'2'
tp137
aa(lp138
S'via'
p139
a(S'Via'
p140
S'http/1.1 fts118.flickr.bf1.yahoo.com (ApacheTrafficServer [cMsSf ]), http/1.1 e24.ycpi.daa.yahoo.com (ApacheTrafficServer [cMsSf ])'
p141
tp142
aa(lp143
S'server'
p144
a(S'Server'
p145
S'ATS'
p146
tp147
aa(lp148
S'connection'
p149
a(S'Connection'
p150
S'keep-alive'
p151
tp152
aa(lp153
S'strict-transport-security'
p154
a(S'Strict-Transport-Security'
p155
S'max-age=15552000'
p156
tp157
aa(lp158
S'expect-ct'
p159
a(S'Expect-CT'
p160
S'max-age=31536000, report-uri="http://csp.yahoo.com/beacon/csp?src=yahoocom-expect-ct-report-only"'
p161
tp162
aa(lp163
S'public-key-pins-report-only'
p164
a(S'Public-Key-Pins-Report-Only'
p165
S'max-age=2592000; pin-sha256="2fRAUXyxl4A1/XHrKNBmc8bTkzA7y4FB/GLJuNAzCqY="; pin-sha256="2oALgLKofTmeZvoZ1y/fSZg7R9jPMix8eVA6DH4o/q8="; pin-sha256="Gtk3r1evlBrs0hG3fm3VoM19daHexDWP//OCmeeMr5M="; pin-sha256="I/Lt/z7ekCWanjD0Cvj5EqXls2lOaThEA0H2Bg4BT/o="; pin-sha256="JbQbUG5JMJUoI6brnx0x3vZF6jilxsapbXGVfjhN8Fg="; pin-sha256="SVqWumuteCQHvVIaALrOZXuzVVVeS7f4FGxxu6V+es4="; pin-sha256="UZJDjsNp1+4M5x9cbbdflB779y5YRBcV6Z6rBMLIrO4="; pin-sha256="Wd8xe/qfTwq3ylFNd3IpaqLHZbh2ZNCLluVzmeNkcpw="; pin-sha256="WoiWRyIOVNa9ihaBciRSC7XHjliYS9VwUGOIud4PB18="; pin-sha256="cAajgxHlj7GTSEIzIYIQxmEloOSoJq7VOaxWHfv72QM="; pin-sha256="dolnbtzEBnELx/9lOEQ22e6OZO/QNb6VSSX2XHA3E7A="; pin-sha256="i7WTqTvh0OioIruIfFR4kMPnBqrS2rdiVPl/s2uC/CY="; pin-sha256="iduNzFNKpwYZ3se/XV+hXcbUonlLw09QPa6AYUwpu4M="; pin-sha256="lnsM2T/O9/J84sJFdnrpsFp3awZJ+ZZbYpCWhGloaHI="; pin-sha256="r/mIkG3eEpVdm+u/ko/cwxzOMo1bk4TyHIlByibiA5E="; pin-sha256="uUwZgwDOxcBXrQcntwu+kYFpkiVkOaezL0WYEZ3anJc="; includeSubdomains; report-uri="http://csp.yahoo.com/beacon/csp?src=yahoocom-hpkp-report-only"'
p166
tp167
aatRp168
sbsS'reason'
p169
S'OK'
p170
sS'history'
p171
(lp172
sb.