(dp1
S'travel'
p2
(dp3
Vstatus
p4
(dp5
Vcode
p6
I10000
sVdescription
p7
VOk
p8
ssVoutputs
p9
(lp10
(dp11
Vstatus
p12
(dp13
Vcode
p14
I10000
sVdescription
p15
VOk
p16
ssVcreated_at
p17
V2018-07-27T03:38:09.137510594Z
p18
sVinput
p19
(dp20
Vdata
p21
(dp22
Vimage
p23
(dp24
Vurl
p25
Vhttps://farm1.staticflickr.com/831/42047751682_bdf5ea004e_b.jpg
p26
sssVid
p27
V21540fb7d3a04be7ba1eff7d43d94283
p28
ssVmodel
p29
(dp30
Vdisplay_name
p31
VTravel
p32
sVname
p33
Vtravel-v1.0
p34
sVoutput_info
p35
(dp36
Vtype_ext
p37
Vconcept
p38
sVmessage
p39
VShow output_info with: GET /models/{model_id}/output_info
p40
sVtype
p41
Vconcept
p42
ssVcreated_at
p43
V2016-09-17T22:18:59.955626Z
p44
sVapp_id
p45
Vmain
p46
sVmodel_version
p47
(dp48
Vstatus
p49
(dp50
Vcode
p51
I21100
sVdescription
p52
VModel trained successfully
p53
ssVcreated_at
p54
V2016-09-17T22:18:59.955626Z
p55
sVid
p56
Vd2ffbf9730fd41fea79063270847be82
p57
ssVid
p58
Veee28c313d69466f836ab83287a54ed9
p59
ssVdata
p60
(dp61
Vconcepts
p62
(lp63
(dp64
Vapp_id
p65
Vmain
p66
sVid
p67
Vai_J2x9qKdS
p68
sVvalue
p69
F0.61763809999999997
sVname
p70
VAnimals
p71
sa(dp72
Vapp_id
p73
Vmain
p74
sVid
p75
Vai_NVNKLrCW
p76
sVvalue
p77
F0.5341513
sVname
p78
VDetails
p79
sa(dp80
Vapp_id
p81
Vmain
p82
sVid
p83
Vai_hmSzCZd5
p84
sVvalue
p85
F0.33294624
sVname
p86
VDaytime
p87
sa(dp88
Vapp_id
p89
Vmain
p90
sVid
p91
Vai_4jNtvp5v
p92
sVvalue
p93
F0.27423605000000001
sVname
p94
VAutumn
p95
sa(dp96
Vapp_id
p97
Vmain
p98
sVid
p99
Vai_sf6B79BS
p100
sVvalue
p101
F0.24894369999999999
sVname
p102
VSports & Activities
p103
sa(dp104
Vapp_id
p105
Vmain
p106
sVid
p107
Vai_Gg9h60xC
p108
sVvalue
p109
F0.19894793999999999
sVname
p110
VFood & Beverages
p111
sa(dp112
Vapp_id
p113
Vmain
p114
sVid
p115
Vai_cnHscbDs
p116
sVvalue
p117
F0.13885005
sVname
p118
VReception
p119
sa(dp120
Vapp_id
p121
Vmain
p122
sVid
p123
Vai_3zmv8r1f
p124
sVvalue
p125
F0.080836099999999994
sVname
p126
VGift Shop
p127
sa(dp128
Vapp_id
p129
Vmain
p130
sVid
p131
Vai_1gfzSbdC
p132
sVvalue
p133
F0.075260859999999999
sVname
p134
VEntrance
p135
sa(dp136
Vapp_id
p137
Vmain
p138
sVid
p139
Vai_wKZngtKg
p140
sVvalue
p141
F0.072997049999999994
sVname
p142
VRestaurant
p143
sa(dp144
Vapp_id
p145
Vmain
p146
sVid
p147
Vai_zF1MvGHt
p148
sVvalue
p149
F0.060915016000000002
sVname
p150
VTelevision
p151
sa(dp152
Vapp_id
p153
Vmain
p154
sVid
p155
Vai_XB2b9m4v
p156
sVvalue
p157
F0.057799245999999999
sVname
p158
VSummer
p159
sa(dp160
Vapp_id
p161
Vmain
p162
sVid
p163
Vai_RM5WcxGX
p164
sVvalue
p165
F0.053537677999999998
sVname
p166
VBar
p167
sa(dp168
Vapp_id
p169
Vmain
p170
sVid
p171
Vai_T4GN2Cdl
p172
sVvalue
p173
F0.052327994000000003
sVname
p174
VWater Sports
p175
sa(dp176
Vapp_id
p177
Vmain
p178
sVid
p179
Vai_3j6nNvsH
p180
sVvalue
p181
F0.048695586999999999
sVname
p182
VCasino
p183
sa(dp184
Vapp_id
p185
Vmain
p186
sVid
p187
Vai_Dfn704P0
p188
sVvalue
p189
F0.044438496000000001
sVname
p190
VBreakfast Buffet
p191
sa(dp192
Vapp_id
p193
Vmain
p194
sVid
p195
Vai_PtsQBLC8
p196
sVvalue
p197
F0.043442525000000003
sVname
p198
VFireplace
p199
sa(dp200
Vapp_id
p201
Vmain
p202
sVid
p203
Vai_MbpTFJxj
p204
sVvalue
p205
F0.042862116999999998
sVname
p206
VGarden
p207
sa(dp208
Vapp_id
p209
Vmain
p210
sVid
p211
Vai_rRbfXwwx
p212
sVvalue
p213
F0.040999630000000002
sVname
p214
VChair
p215
sa(dp216
Vapp_id
p217
Vmain
p218
sVid
p219
Vai_6bSB4lrf
p220
sVvalue
p221
F0.037902172999999997
sVname
p222
VCouch
p223
sassVid
p224
V09b69b9afd364ec7bb1beb43ad181b5e
p225
sassS'general'
p226
(dp227
Vstatus
p228
(dp229
Vcode
p230
I10000
sVdescription
p231
VOk
p232
ssVoutputs
p233
(lp234
(dp235
Vstatus
p236
(dp237
Vcode
p238
I10000
sVdescription
p239
VOk
p240
ssVcreated_at
p241
V2018-07-27T03:38:08.609699655Z
p242
sVinput
p243
(dp244
Vdata
p245
(dp246
Vimage
p247
(dp248
Vurl
p249
Vhttps://farm1.staticflickr.com/831/42047751682_bdf5ea004e_b.jpg
p250
sssVid
p251
V7854a5348e584f91b12d6d526cb22651
p252
ssVmodel
p253
(dp254
Vdisplay_name
p255
VGeneral
p256
sVname
p257
Vgeneral-v1.3
p258
sVoutput_info
p259
(dp260
Vtype_ext
p261
Vconcept
p262
sVmessage
p263
VShow output_info with: GET /models/{model_id}/output_info
p264
sVtype
p265
Vconcept
p266
ssVcreated_at
p267
V2016-03-09T17:11:39.608845Z
p268
sVapp_id
p269
Vmain
p270
sVmodel_version
p271
(dp272
Vstatus
p273
(dp274
Vcode
p275
I21100
sVdescription
p276
VModel trained successfully
p277
ssVcreated_at
p278
V2016-07-13T01:19:12.147644Z
p279
sVid
p280
Vaa9ca48295b37401f8af92ad1af0d91d
p281
ssVid
p282
Vaaa03c23b3724a16a56b629203edc62c
p283
ssVdata
p284
(dp285
Vconcepts
p286
(lp287
(dp288
Vapp_id
p289
Vmain
p290
sVid
p291
Vai_786Zr311
p292
sVvalue
p293
F0.97531009999999996
sVname
p294
Vno person
p295
sa(dp296
Vapp_id
p297
Vmain
p298
sVid
p299
Vai_K8KbFbb8
p300
sVvalue
p301
F0.96188927000000002
sVname
p302
Vinvertebrate
p303
sa(dp304
Vapp_id
p305
Vmain
p306
sVid
p307
Vai_Lq00FggW
p308
sVvalue
p309
F0.95681435000000004
sVname
p310
Vdesktop
p311
sa(dp312
Vapp_id
p313
Vmain
p314
sVid
p315
Vai_tBcWlsCp
p316
sVvalue
p317
F0.93844413999999998
sVname
p318
Vnature
p319
sa(dp320
Vapp_id
p321
Vmain
p322
sVid
p323
Vai_bc4M5SDK
p324
sVvalue
p325
F0.93778360000000005
sVname
p326
Vinsect
p327
sa(dp328
Vapp_id
p329
Vmain
p330
sVid
p331
Vai_SVshtN54
p332
sVvalue
p333
F0.92999642999999999
sVname
p334
Vone
p335
sa(dp336
Vapp_id
p337
Vmain
p338
sVid
p339
Vai_4lvjn8qv
p340
sVvalue
p341
F0.90495300000000001
sVname
p342
Vcloseup
p343
sa(dp344
Vapp_id
p345
Vmain
p346
sVid
p347
Vai_HFMtl2XB
p348
sVvalue
p349
F0.8421689
sVname
p350
Vbutterfly
p351
sa(dp352
Vapp_id
p353
Vmain
p354
sVid
p355
Vai_SzsXMB1w
p356
sVvalue
p357
F0.82980120000000002
sVname
p358
Vanimal
p359
sa(dp360
Vapp_id
p361
Vmain
p362
sVid
p363
Vai_fbqvMwRm
p364
sVvalue
p365
F0.82957654999999997
sVname
p366
Vwildlife
p367
sa(dp368
Vapp_id
p369
Vmain
p370
sVid
p371
Vai_0JbWBDPd
p372
sVvalue
p373
F0.82851195
sVname
p374
Vcolor
p375
sa(dp376
Vapp_id
p377
Vmain
p378
sVid
p379
Vai_61P30wlx
p380
sVvalue
p381
F0.80159119999999995
sVname
p382
Vantenna
p383
sa(dp384
Vapp_id
p385
Vmain
p386
sVid
p387
Vai_q5V5SN58
p388
sVvalue
p389
F0.78443859999999999
sVname
p390
Vmoth
p391
sa(dp392
Vapp_id
p393
Vmain
p394
sVid
p395
Vai_4FWCQs9l
p396
sVvalue
p397
F0.76228355999999997
sVname
p398
Vclose
p399
sa(dp400
Vapp_id
p401
Vmain
p402
sVid
p403
Vai_V0WFhmCF
p404
sVvalue
p405
F0.75802840000000005
sVname
p406
Vpattern
p407
sa(dp408
Vapp_id
p409
Vmain
p410
sVid
p411
Vai_TJ9wFfK5
p412
sVvalue
p413
F0.7424499
sVname
p414
Vportrait
p415
sa(dp416
Vapp_id
p417
Vmain
p418
sVid
p419
Vai_2wK2dkNW
p420
sVvalue
p421
F0.74179565999999997
sVname
p422
Vimage
p423
sa(dp424
Vapp_id
p425
Vmain
p426
sVid
p427
Vai_4sJLn6nX
p428
sVvalue
p429
F0.73705140000000002
sVname
p430
Vdark
p431
sa(dp432
Vapp_id
p433
Vmain
p434
sVid
p435
Vai_HkqZwBbr
p436
sVvalue
p437
F0.71231365000000002
sVname
p438
Vlittle
p439
sa(dp440
Vapp_id
p441
Vmain
p442
sVid
p443
Vai_zFnPQdgB
p444
sVvalue
p445
F0.71066249999999997
sVname
p446
Vwood
p447
sassVid
p448
Va434d37baf8b4792bcc11dede0d96647
p449
sass.