(dp1
Vsummer
p2
(lp3
Vhttps://scontent.cdninstagram.com/vp/5d30a91df8974f1b69a879c11118ac41/5BF4A791/t51.2885-15/sh0.08/e35/s640x640/35001132_2058116641121106_4490468641036304384_n.jpg
p4
aVhttps://scontent.cdninstagram.com/vp/e0103b2a232b83d6d39a37b24454085a/5BD42FA3/t51.2885-15/sh0.08/e35/s640x640/35483179_253659122051559_1132108801760034816_n.jpg
p5
aVhttps://scontent.cdninstagram.com/vp/b275e25730db26a5a25403f9df6eabd5/5BD7D91C/t51.2885-15/sh0.08/e35/s640x640/36148141_196825181161426_677152085849931776_n.jpg
p6
aVhttps://scontent.cdninstagram.com/vp/3c3e2e932f3c16e4ff0d8cde950800c7/5BF6B48C/t51.2885-15/sh0.08/e35/s640x640/36085341_625498544493633_5606237531776483328_n.jpg
p7
aVhttps://scontent.cdninstagram.com/vp/10dff54a8716496f66ce686a542d7102/5BFADA85/t51.2885-15/sh0.08/e35/s640x640/35574897_265814070853015_954143803898331136_n.jpg
p8
aVhttps://scontent.cdninstagram.com/vp/af5e76f8804c43c163a09932bc5ffa42/5BF21B8A/t51.2885-15/sh0.08/e35/s640x640/36160470_1036318143194877_7432221918230478848_n.jpg
p9
aVhttps://scontent.cdninstagram.com/vp/5110ad6d68b0592589eed5e92e2f8580/5BF026B0/t51.2885-15/sh0.08/e35/s640x640/35617146_272016600010704_1055981249467777024_n.jpg
p10
aVhttps://scontent.cdninstagram.com/vp/4f3d99cf13237bdc5a77f54eed9264fb/5BED7367/t51.2885-15/sh0.08/e35/s640x640/35174069_185209642170923_6721497713705222144_n.jpg
p11
aVhttps://scontent.cdninstagram.com/vp/0673526aa3c4aaccd37e9073100096b1/5C0866EE/t51.2885-15/sh0.08/e35/s640x640/36976670_1345191018944322_268084273704075264_n.jpg
p12
aVhttps://scontent.cdninstagram.com/vp/4bb1b7b860afc194ce0ec6c088323451/5BF28F5F/t51.2885-15/sh0.08/e35/s640x640/37105901_226581691379225_3542663225319358464_n.jpg
p13
aVhttps://scontent.cdninstagram.com/vp/3a6fb1d4711791b302205b9c7b6a24eb/5C0FBD23/t51.2885-15/sh0.08/e35/s640x640/37647861_2231003147186926_3415548488463679488_n.jpg
p14
aVhttps://scontent.cdninstagram.com/vp/f2cf08d02d92d56e3422d55e58e9efcd/5C0F794C/t51.2885-15/sh0.08/e35/s640x640/36837573_957229794484333_1148899469597605888_n.jpg
p15
aVhttps://scontent.cdninstagram.com/vp/04ef31442cddbccce3a2cf8beb83b82c/5C071BE6/t51.2885-15/sh0.08/e35/s640x640/36767867_236559173613384_3172550139482996736_n.jpg
p16
aVhttps://scontent.cdninstagram.com/vp/6acc8af667b74a4ca9a671bf5af94af0/5C0D0AF2/t51.2885-15/sh0.08/e35/s640x640/37254209_2119495828322471_6795489576329674752_n.jpg
p17
aVhttps://scontent.cdninstagram.com/vp/2e661a5824f75ca8a9c7c9a6a7889901/5C0C65D1/t51.2885-15/sh0.08/e35/s640x640/36981749_206450916733162_4293667741975445504_n.jpg
p18
aVhttps://scontent.cdninstagram.com/vp/aa5ac5a748c362b8cb168506d65271f7/5BD63441/t51.2885-15/sh0.08/e35/s640x640/36868944_1940741769556399_9136256351901581312_n.jpg
p19
aVhttps://scontent.cdninstagram.com/vp/477daa3fdd71d38b02fff6f6fca16e40/5BD43AD5/t51.2885-15/sh0.08/e35/s640x640/36762780_663884897305601_5410891703210999808_n.jpg
p20
aVhttps://scontent.cdninstagram.com/vp/e4f8213a963cd50a226ebe3111d1f80a/5BEFE52B/t51.2885-15/sh0.08/e35/s640x640/35574508_632940747059311_7646929446481428480_n.jpg
p21
aVhttps://scontent.cdninstagram.com/vp/b1f1c6ef13f0f331eb86be77c2a9688b/5BD8D778/t51.2885-15/sh0.08/e35/s640x640/35575515_201455093904695_5385289665152548864_n.jpg
p22
aVhttps://scontent.cdninstagram.com/vp/e8594df7d73e73e56e4efcf11a1aa9e6/5C0F75FD/t51.2885-15/sh0.08/e35/s640x640/35998468_2141908069362289_3826387403388485632_n.jpg
p23
asS'sid'
p24
(lp25
Vhttps://scontent.cdninstagram.com/vp/b91da37ac01c748611bfd0ade179d638/5BF026B0/t51.2885-15/sh0.08/e35/s640x640/35617146_272016600010704_1055981249467777024_n.jpg?_nc_eui2=AeGuhYK1rg304SUZ0DmKd6_2wth-bRjQ-4G8r9ILQ9G1yHOH0-RFKxDOZlZjgPt9W9UcbgokxnDixem9oaoqBEJ7
p26
aVhttps://scontent.cdninstagram.com/vp/973de5c53533bfdfcd48d0788f419a2a/5BDF8EE6/t51.2885-15/sh0.08/e35/s640x640/36767867_236559173613384_3172550139482996736_n.jpg?_nc_eui2=AeErfX9weIHei1uu33jHT64lJ0dfMGTZiFVukUHOvOATlzi6UuJuIsMuGEFQaXfB2HxaiERYtxgHx3BGQontAMpH
p27
aVhttps://scontent.cdninstagram.com/vp/9fb93cba53ad14819ff20b4044434721/5BF21B8A/t51.2885-15/sh0.08/e35/s640x640/36160470_1036318143194877_7432221918230478848_n.jpg?_nc_eui2=AeFuns6crQY85jwZFDPKqZai8z76-sZPK60lxUaYIpb-XENHpCHB2knRX6uxb7GnN-skGIm_o-ZcMT5tL-IQG4-I
p28
aVhttps://scontent.cdninstagram.com/vp/be0ae12b2a4f7f0d1d93ffa10868c313/5BD42FA3/t51.2885-15/sh0.08/e35/s640x640/35483179_253659122051559_1132108801760034816_n.jpg?_nc_eui2=AeFaIDKr1K8STKyfqWsvQExjaHmLpR0eFHdq-1n_Q-n__lb3BveF6kvveDNt9xL99bwzSp8ZxTl_TVSAdMtqVvbo
p29
aVhttps://scontent.cdninstagram.com/vp/2f01005947c226ac6203d026bb98b36f/5BD8D778/t51.2885-15/sh0.08/e35/s640x640/35575515_201455093904695_5385289665152548864_n.jpg?_nc_eui2=AeHWNtjwu0zbfKjzxPy40dF9jDB7zTAmBF4-i00yFOyUPsW0wU4FhYYbRqu4B9pCTSzNzYrXVbCPK0qH1tWybZST
p30
aVhttps://scontent.cdninstagram.com/vp/32c15f3924f17c238619b46a375b0802/5C0C65D1/t51.2885-15/sh0.08/e35/s640x640/36981749_206450916733162_4293667741975445504_n.jpg?_nc_eui2=AeHbWoT_vvRkpohrP1s8v2h-UKbpDi_mELuEP5al4Z6opbRyAGwLsWWF7zKyBBifw4q3wL5S9zB-zU_9i4K4khwq
p31
aVhttps://scontent.cdninstagram.com/vp/2c51774fad5735db0bd94ce08d7f3275/5C0F75FD/t51.2885-15/sh0.08/e35/s640x640/35998468_2141908069362289_3826387403388485632_n.jpg?_nc_eui2=AeEIPcSyhEUHRTsszHnZRp3ZwvoawLwDnqHsrn_ubqKhbs5iuOyOlphIYjQv6o6g26ovQ-VIeU-FX3QBzMNQ6TnW
p32
aVhttps://scontent.cdninstagram.com/vp/87c04d0814eb22217015f5d4757c5aeb/5C0D0AF2/t51.2885-15/sh0.08/e35/s640x640/37254209_2119495828322471_6795489576329674752_n.jpg?_nc_eui2=AeGwhmWbrK2upocXw-fitQ_XtU8urjdHJuMnzfaBnVJtH1BjmaHwo-8MG0W6gYuTM0xjfzRLQYNhSdmC_aJbxIbv
p33
aVhttps://scontent.cdninstagram.com/vp/98cabbc891d4cc572b57b731e00888cd/5C0FBD23/t51.2885-15/sh0.08/e35/s640x640/37647861_2231003147186926_3415548488463679488_n.jpg?_nc_eui2=AeEEDkwsek7AsFVLxXo49NIaMI9Bs0hp9MMYxS25lJ2nyWHIczXoqoCk62yS8xTFSfJHNwXeFkDsJOBlWgWNHya1
p34
aVhttps://scontent.cdninstagram.com/vp/6be5761fa9bc9f468a565525c3a1b2bd/5BD7D91C/t51.2885-15/sh0.08/e35/s640x640/36148141_196825181161426_677152085849931776_n.jpg?_nc_eui2=AeHdzojoIVqIgbR_c92rNVd9YukNKOuf8hbq5X2R_Cf3BcfTYFQ1KVflMhBz4F62RXKm2v4lDAJUVEjQdHKpSJaJ
p35
aVhttps://scontent.cdninstagram.com/vp/ded60c6175309898bb007ba421d806e1/5BD63441/t51.2885-15/sh0.08/e35/s640x640/36868944_1940741769556399_9136256351901581312_n.jpg?_nc_eui2=AeEzmGL--X-UgGRWse1ADjhIQOb1bp9cvNRxd-IO7FuLMPw4_MNzMVLZeQpVfBM2JyeckPuwD0tFAuo1u0z6tqbx
p36
aVhttps://scontent.cdninstagram.com/vp/e336215b577411c7fc93c33ea00e991b/5BF4A791/t51.2885-15/sh0.08/e35/s640x640/35001132_2058116641121106_4490468641036304384_n.jpg?_nc_eui2=AeGuLMbHyaIWPuJnxLoiY0L0tMCjlPpg240lzr_jtCLsHDEyCoUVEp4tBBgS0394_1TMk8eD8Np5mbw-5cwvRl_f
p37
aVhttps://scontent.cdninstagram.com/vp/775e4918d269b1037394f8ec966223a1/5C0866EE/t51.2885-15/sh0.08/e35/s640x640/36976670_1345191018944322_268084273704075264_n.jpg?_nc_eui2=AeEhJ04bqzm6dchHgLPw7hGhadL-M-XZiK08JVhBBmgQFGmVCJW1Ul1dFBF56eRMlwbJ6r6zMWFLNzBXfIhlLt6J
p38
aVhttps://scontent.cdninstagram.com/vp/7862689ea232b1dbd7794e597d06624b/5BED7367/t51.2885-15/sh0.08/e35/s640x640/35174069_185209642170923_6721497713705222144_n.jpg?_nc_eui2=AeHYoxRreAvnJZIdXAieIA5yZ_ta9cRQJENRvHeGQVOzxd6zA8dwQbaDU4cxPC6V2rkKcQ5YaShoQZpvB_l9X1_D
p39
aVhttps://scontent.cdninstagram.com/vp/1e707533755e0a8436ef7a9451bc34f1/5BD43AD5/t51.2885-15/sh0.08/e35/s640x640/36762780_663884897305601_5410891703210999808_n.jpg?_nc_eui2=AeEqYyC9nIOg6MxwOKsI9ATcKtCeBxtFpw2OTYwC8PFcLKasmux5FbtFDwJypjYSD9FUuID7jF5lCd7sR-z8PhZX
p40
aVhttps://scontent.cdninstagram.com/vp/97173ff7badd3386c74337153456c1e8/5BD9150A/t51.2885-15/sh0.08/e35/s640x640/35385963_228217224443168_5379144610629025792_n.jpg?_nc_eui2=AeHZUa169Rk_1gpsylzmKSahSW4FkcLnOmJCINRgQuy7QJnpEgxIgsiJ2trOdO_7j15sCTPh2vq-C7wcWknvrAqY
p41
aVhttps://scontent.cdninstagram.com/vp/695565105dba90869d864538316dd93a/5BF6B48C/t51.2885-15/sh0.08/e35/s640x640/36085341_625498544493633_5606237531776483328_n.jpg?_nc_eui2=AeF0o_tOWklmgvCmEhqUu-wuK-ov7wnGQppvjygoW_TIzYeU7B96y6A-rnynUlPEViq2TRuf_M2ObrXuZC2bU8uM
p42
aVhttps://scontent.cdninstagram.com/vp/9c0a0791fa80c9ecd5b32b6f5fd0af98/5C0F794C/t51.2885-15/sh0.08/e35/s640x640/36837573_957229794484333_1148899469597605888_n.jpg?_nc_eui2=AeFOgCL6iyAK9j9M5syLYJXwFoFEN2FLzb99BcKKpD0NccbVgZ0LtJW3WQQ8LCXwcQGetIIPRBCpqGcXunb8rpoQ
p43
aVhttps://scontent.cdninstagram.com/vp/a287b082191e1596b2d080b563d451cd/5BEFE52B/t51.2885-15/sh0.08/e35/s640x640/35574508_632940747059311_7646929446481428480_n.jpg?_nc_eui2=AeHi2joXR3BVxn19LdJygadHveAx10GhOj3CjV_i-1IDLf5qkHXbFINnDi7Vwva3d0rzvUTjNzaJIg-udCfRCT-_
p44
aVhttps://scontent.cdninstagram.com/vp/7e2dd126909ae884f2f2ae3c01cb5e98/5BD34D85/t51.2885-15/sh0.08/e35/s640x640/35574897_265814070853015_954143803898331136_n.jpg?_nc_eui2=AeHuGfpuV5Aww9ZOymhry1cSv8MMpQDcFIheutEqTmpCXykqping8jBpaGm14kDVY7NkWjZqUvutyAR3aLCVn6Bh
p45
as.